
;CodeVisionAVR C Compiler V3.12 Advanced
;(C) Copyright 1998-2014 Pavel Haiduc, HP InfoTech s.r.l.
;http://www.hpinfotech.com

;Build configuration    : Debug
;Chip type              : ATmega32A
;Program type           : Application
;Clock frequency        : 8.000000 MHz
;Memory model           : Small
;Optimize for           : Size
;(s)printf features     : int, width
;(s)scanf features      : int, width
;External RAM size      : 0
;Data Stack size        : 512 byte(s)
;Heap size              : 0 byte(s)
;Promote 'char' to 'int': Yes
;'char' is unsigned     : Yes
;8 bit enums            : Yes
;Global 'const' stored in FLASH: No
;Enhanced function parameter passing: Yes
;Enhanced core instructions: On
;Automatic register allocation for global variables: On
;Smart register allocation: On

	#define _MODEL_SMALL_

	#pragma AVRPART ADMIN PART_NAME ATmega32A
	#pragma AVRPART MEMORY PROG_FLASH 32768
	#pragma AVRPART MEMORY EEPROM 1024
	#pragma AVRPART MEMORY INT_SRAM SIZE 2048
	#pragma AVRPART MEMORY INT_SRAM START_ADDR 0x60

	#define CALL_SUPPORTED 1

	.LISTMAC
	.EQU UDRE=0x5
	.EQU RXC=0x7
	.EQU USR=0xB
	.EQU UDR=0xC
	.EQU SPSR=0xE
	.EQU SPDR=0xF
	.EQU EERE=0x0
	.EQU EEWE=0x1
	.EQU EEMWE=0x2
	.EQU EECR=0x1C
	.EQU EEDR=0x1D
	.EQU EEARL=0x1E
	.EQU EEARH=0x1F
	.EQU WDTCR=0x21
	.EQU MCUCR=0x35
	.EQU SPL=0x3D
	.EQU SPH=0x3E
	.EQU SREG=0x3F

	.DEF R0X0=R0
	.DEF R0X1=R1
	.DEF R0X2=R2
	.DEF R0X3=R3
	.DEF R0X4=R4
	.DEF R0X5=R5
	.DEF R0X6=R6
	.DEF R0X7=R7
	.DEF R0X8=R8
	.DEF R0X9=R9
	.DEF R0XA=R10
	.DEF R0XB=R11
	.DEF R0XC=R12
	.DEF R0XD=R13
	.DEF R0XE=R14
	.DEF R0XF=R15
	.DEF R0X10=R16
	.DEF R0X11=R17
	.DEF R0X12=R18
	.DEF R0X13=R19
	.DEF R0X14=R20
	.DEF R0X15=R21
	.DEF R0X16=R22
	.DEF R0X17=R23
	.DEF R0X18=R24
	.DEF R0X19=R25
	.DEF R0X1A=R26
	.DEF R0X1B=R27
	.DEF R0X1C=R28
	.DEF R0X1D=R29
	.DEF R0X1E=R30
	.DEF R0X1F=R31

	.EQU __SRAM_START=0x0060
	.EQU __SRAM_END=0x085F
	.EQU __DSTACK_SIZE=0x0200
	.EQU __HEAP_SIZE=0x0000
	.EQU __CLEAR_SRAM_SIZE=__SRAM_END-__SRAM_START+1

	.MACRO __CPD1N
	CPI  R30,LOW(@0)
	LDI  R26,HIGH(@0)
	CPC  R31,R26
	LDI  R26,BYTE3(@0)
	CPC  R22,R26
	LDI  R26,BYTE4(@0)
	CPC  R23,R26
	.ENDM

	.MACRO __CPD2N
	CPI  R26,LOW(@0)
	LDI  R30,HIGH(@0)
	CPC  R27,R30
	LDI  R30,BYTE3(@0)
	CPC  R24,R30
	LDI  R30,BYTE4(@0)
	CPC  R25,R30
	.ENDM

	.MACRO __CPWRR
	CP   R@0,R@2
	CPC  R@1,R@3
	.ENDM

	.MACRO __CPWRN
	CPI  R@0,LOW(@2)
	LDI  R30,HIGH(@2)
	CPC  R@1,R30
	.ENDM

	.MACRO __ADDB1MN
	SUBI R30,LOW(-@0-(@1))
	.ENDM

	.MACRO __ADDB2MN
	SUBI R26,LOW(-@0-(@1))
	.ENDM

	.MACRO __ADDW1MN
	SUBI R30,LOW(-@0-(@1))
	SBCI R31,HIGH(-@0-(@1))
	.ENDM

	.MACRO __ADDW2MN
	SUBI R26,LOW(-@0-(@1))
	SBCI R27,HIGH(-@0-(@1))
	.ENDM

	.MACRO __ADDW1FN
	SUBI R30,LOW(-2*@0-(@1))
	SBCI R31,HIGH(-2*@0-(@1))
	.ENDM

	.MACRO __ADDD1FN
	SUBI R30,LOW(-2*@0-(@1))
	SBCI R31,HIGH(-2*@0-(@1))
	SBCI R22,BYTE3(-2*@0-(@1))
	.ENDM

	.MACRO __ADDD1N
	SUBI R30,LOW(-@0)
	SBCI R31,HIGH(-@0)
	SBCI R22,BYTE3(-@0)
	SBCI R23,BYTE4(-@0)
	.ENDM

	.MACRO __ADDD2N
	SUBI R26,LOW(-@0)
	SBCI R27,HIGH(-@0)
	SBCI R24,BYTE3(-@0)
	SBCI R25,BYTE4(-@0)
	.ENDM

	.MACRO __SUBD1N
	SUBI R30,LOW(@0)
	SBCI R31,HIGH(@0)
	SBCI R22,BYTE3(@0)
	SBCI R23,BYTE4(@0)
	.ENDM

	.MACRO __SUBD2N
	SUBI R26,LOW(@0)
	SBCI R27,HIGH(@0)
	SBCI R24,BYTE3(@0)
	SBCI R25,BYTE4(@0)
	.ENDM

	.MACRO __ANDBMNN
	LDS  R30,@0+(@1)
	ANDI R30,LOW(@2)
	STS  @0+(@1),R30
	.ENDM

	.MACRO __ANDWMNN
	LDS  R30,@0+(@1)
	ANDI R30,LOW(@2)
	STS  @0+(@1),R30
	LDS  R30,@0+(@1)+1
	ANDI R30,HIGH(@2)
	STS  @0+(@1)+1,R30
	.ENDM

	.MACRO __ANDD1N
	ANDI R30,LOW(@0)
	ANDI R31,HIGH(@0)
	ANDI R22,BYTE3(@0)
	ANDI R23,BYTE4(@0)
	.ENDM

	.MACRO __ANDD2N
	ANDI R26,LOW(@0)
	ANDI R27,HIGH(@0)
	ANDI R24,BYTE3(@0)
	ANDI R25,BYTE4(@0)
	.ENDM

	.MACRO __ORBMNN
	LDS  R30,@0+(@1)
	ORI  R30,LOW(@2)
	STS  @0+(@1),R30
	.ENDM

	.MACRO __ORWMNN
	LDS  R30,@0+(@1)
	ORI  R30,LOW(@2)
	STS  @0+(@1),R30
	LDS  R30,@0+(@1)+1
	ORI  R30,HIGH(@2)
	STS  @0+(@1)+1,R30
	.ENDM

	.MACRO __ORD1N
	ORI  R30,LOW(@0)
	ORI  R31,HIGH(@0)
	ORI  R22,BYTE3(@0)
	ORI  R23,BYTE4(@0)
	.ENDM

	.MACRO __ORD2N
	ORI  R26,LOW(@0)
	ORI  R27,HIGH(@0)
	ORI  R24,BYTE3(@0)
	ORI  R25,BYTE4(@0)
	.ENDM

	.MACRO __DELAY_USB
	LDI  R24,LOW(@0)
__DELAY_USB_LOOP:
	DEC  R24
	BRNE __DELAY_USB_LOOP
	.ENDM

	.MACRO __DELAY_USW
	LDI  R24,LOW(@0)
	LDI  R25,HIGH(@0)
__DELAY_USW_LOOP:
	SBIW R24,1
	BRNE __DELAY_USW_LOOP
	.ENDM

	.MACRO __GETD1S
	LDD  R30,Y+@0
	LDD  R31,Y+@0+1
	LDD  R22,Y+@0+2
	LDD  R23,Y+@0+3
	.ENDM

	.MACRO __GETD2S
	LDD  R26,Y+@0
	LDD  R27,Y+@0+1
	LDD  R24,Y+@0+2
	LDD  R25,Y+@0+3
	.ENDM

	.MACRO __PUTD1S
	STD  Y+@0,R30
	STD  Y+@0+1,R31
	STD  Y+@0+2,R22
	STD  Y+@0+3,R23
	.ENDM

	.MACRO __PUTD2S
	STD  Y+@0,R26
	STD  Y+@0+1,R27
	STD  Y+@0+2,R24
	STD  Y+@0+3,R25
	.ENDM

	.MACRO __PUTDZ2
	STD  Z+@0,R26
	STD  Z+@0+1,R27
	STD  Z+@0+2,R24
	STD  Z+@0+3,R25
	.ENDM

	.MACRO __CLRD1S
	STD  Y+@0,R30
	STD  Y+@0+1,R30
	STD  Y+@0+2,R30
	STD  Y+@0+3,R30
	.ENDM

	.MACRO __POINTB1MN
	LDI  R30,LOW(@0+(@1))
	.ENDM

	.MACRO __POINTW1MN
	LDI  R30,LOW(@0+(@1))
	LDI  R31,HIGH(@0+(@1))
	.ENDM

	.MACRO __POINTD1M
	LDI  R30,LOW(@0)
	LDI  R31,HIGH(@0)
	LDI  R22,BYTE3(@0)
	LDI  R23,BYTE4(@0)
	.ENDM

	.MACRO __POINTW1FN
	LDI  R30,LOW(2*@0+(@1))
	LDI  R31,HIGH(2*@0+(@1))
	.ENDM

	.MACRO __POINTD1FN
	LDI  R30,LOW(2*@0+(@1))
	LDI  R31,HIGH(2*@0+(@1))
	LDI  R22,BYTE3(2*@0+(@1))
	LDI  R23,BYTE4(2*@0+(@1))
	.ENDM

	.MACRO __POINTB2MN
	LDI  R26,LOW(@0+(@1))
	.ENDM

	.MACRO __POINTW2MN
	LDI  R26,LOW(@0+(@1))
	LDI  R27,HIGH(@0+(@1))
	.ENDM

	.MACRO __POINTW2FN
	LDI  R26,LOW(2*@0+(@1))
	LDI  R27,HIGH(2*@0+(@1))
	.ENDM

	.MACRO __POINTD2FN
	LDI  R26,LOW(2*@0+(@1))
	LDI  R27,HIGH(2*@0+(@1))
	LDI  R24,BYTE3(2*@0+(@1))
	LDI  R25,BYTE4(2*@0+(@1))
	.ENDM

	.MACRO __POINTBRM
	LDI  R@0,LOW(@1)
	.ENDM

	.MACRO __POINTWRM
	LDI  R@0,LOW(@2)
	LDI  R@1,HIGH(@2)
	.ENDM

	.MACRO __POINTBRMN
	LDI  R@0,LOW(@1+(@2))
	.ENDM

	.MACRO __POINTWRMN
	LDI  R@0,LOW(@2+(@3))
	LDI  R@1,HIGH(@2+(@3))
	.ENDM

	.MACRO __POINTWRFN
	LDI  R@0,LOW(@2*2+(@3))
	LDI  R@1,HIGH(@2*2+(@3))
	.ENDM

	.MACRO __GETD1N
	LDI  R30,LOW(@0)
	LDI  R31,HIGH(@0)
	LDI  R22,BYTE3(@0)
	LDI  R23,BYTE4(@0)
	.ENDM

	.MACRO __GETD2N
	LDI  R26,LOW(@0)
	LDI  R27,HIGH(@0)
	LDI  R24,BYTE3(@0)
	LDI  R25,BYTE4(@0)
	.ENDM

	.MACRO __GETB1MN
	LDS  R30,@0+(@1)
	.ENDM

	.MACRO __GETB1HMN
	LDS  R31,@0+(@1)
	.ENDM

	.MACRO __GETW1MN
	LDS  R30,@0+(@1)
	LDS  R31,@0+(@1)+1
	.ENDM

	.MACRO __GETD1MN
	LDS  R30,@0+(@1)
	LDS  R31,@0+(@1)+1
	LDS  R22,@0+(@1)+2
	LDS  R23,@0+(@1)+3
	.ENDM

	.MACRO __GETBRMN
	LDS  R@0,@1+(@2)
	.ENDM

	.MACRO __GETWRMN
	LDS  R@0,@2+(@3)
	LDS  R@1,@2+(@3)+1
	.ENDM

	.MACRO __GETWRZ
	LDD  R@0,Z+@2
	LDD  R@1,Z+@2+1
	.ENDM

	.MACRO __GETD2Z
	LDD  R26,Z+@0
	LDD  R27,Z+@0+1
	LDD  R24,Z+@0+2
	LDD  R25,Z+@0+3
	.ENDM

	.MACRO __GETB2MN
	LDS  R26,@0+(@1)
	.ENDM

	.MACRO __GETW2MN
	LDS  R26,@0+(@1)
	LDS  R27,@0+(@1)+1
	.ENDM

	.MACRO __GETD2MN
	LDS  R26,@0+(@1)
	LDS  R27,@0+(@1)+1
	LDS  R24,@0+(@1)+2
	LDS  R25,@0+(@1)+3
	.ENDM

	.MACRO __PUTB1MN
	STS  @0+(@1),R30
	.ENDM

	.MACRO __PUTW1MN
	STS  @0+(@1),R30
	STS  @0+(@1)+1,R31
	.ENDM

	.MACRO __PUTD1MN
	STS  @0+(@1),R30
	STS  @0+(@1)+1,R31
	STS  @0+(@1)+2,R22
	STS  @0+(@1)+3,R23
	.ENDM

	.MACRO __PUTB1EN
	LDI  R26,LOW(@0+(@1))
	LDI  R27,HIGH(@0+(@1))
	CALL __EEPROMWRB
	.ENDM

	.MACRO __PUTW1EN
	LDI  R26,LOW(@0+(@1))
	LDI  R27,HIGH(@0+(@1))
	CALL __EEPROMWRW
	.ENDM

	.MACRO __PUTD1EN
	LDI  R26,LOW(@0+(@1))
	LDI  R27,HIGH(@0+(@1))
	CALL __EEPROMWRD
	.ENDM

	.MACRO __PUTBR0MN
	STS  @0+(@1),R0
	.ENDM

	.MACRO __PUTBMRN
	STS  @0+(@1),R@2
	.ENDM

	.MACRO __PUTWMRN
	STS  @0+(@1),R@2
	STS  @0+(@1)+1,R@3
	.ENDM

	.MACRO __PUTBZR
	STD  Z+@1,R@0
	.ENDM

	.MACRO __PUTWZR
	STD  Z+@2,R@0
	STD  Z+@2+1,R@1
	.ENDM

	.MACRO __GETW1R
	MOV  R30,R@0
	MOV  R31,R@1
	.ENDM

	.MACRO __GETW2R
	MOV  R26,R@0
	MOV  R27,R@1
	.ENDM

	.MACRO __GETWRN
	LDI  R@0,LOW(@2)
	LDI  R@1,HIGH(@2)
	.ENDM

	.MACRO __PUTW1R
	MOV  R@0,R30
	MOV  R@1,R31
	.ENDM

	.MACRO __PUTW2R
	MOV  R@0,R26
	MOV  R@1,R27
	.ENDM

	.MACRO __ADDWRN
	SUBI R@0,LOW(-@2)
	SBCI R@1,HIGH(-@2)
	.ENDM

	.MACRO __ADDWRR
	ADD  R@0,R@2
	ADC  R@1,R@3
	.ENDM

	.MACRO __SUBWRN
	SUBI R@0,LOW(@2)
	SBCI R@1,HIGH(@2)
	.ENDM

	.MACRO __SUBWRR
	SUB  R@0,R@2
	SBC  R@1,R@3
	.ENDM

	.MACRO __ANDWRN
	ANDI R@0,LOW(@2)
	ANDI R@1,HIGH(@2)
	.ENDM

	.MACRO __ANDWRR
	AND  R@0,R@2
	AND  R@1,R@3
	.ENDM

	.MACRO __ORWRN
	ORI  R@0,LOW(@2)
	ORI  R@1,HIGH(@2)
	.ENDM

	.MACRO __ORWRR
	OR   R@0,R@2
	OR   R@1,R@3
	.ENDM

	.MACRO __EORWRR
	EOR  R@0,R@2
	EOR  R@1,R@3
	.ENDM

	.MACRO __GETWRS
	LDD  R@0,Y+@2
	LDD  R@1,Y+@2+1
	.ENDM

	.MACRO __PUTBSR
	STD  Y+@1,R@0
	.ENDM

	.MACRO __PUTWSR
	STD  Y+@2,R@0
	STD  Y+@2+1,R@1
	.ENDM

	.MACRO __MOVEWRR
	MOV  R@0,R@2
	MOV  R@1,R@3
	.ENDM

	.MACRO __INWR
	IN   R@0,@2
	IN   R@1,@2+1
	.ENDM

	.MACRO __OUTWR
	OUT  @2+1,R@1
	OUT  @2,R@0
	.ENDM

	.MACRO __CALL1MN
	LDS  R30,@0+(@1)
	LDS  R31,@0+(@1)+1
	ICALL
	.ENDM

	.MACRO __CALL1FN
	LDI  R30,LOW(2*@0+(@1))
	LDI  R31,HIGH(2*@0+(@1))
	CALL __GETW1PF
	ICALL
	.ENDM

	.MACRO __CALL2EN
	PUSH R26
	PUSH R27
	LDI  R26,LOW(@0+(@1))
	LDI  R27,HIGH(@0+(@1))
	CALL __EEPROMRDW
	POP  R27
	POP  R26
	ICALL
	.ENDM

	.MACRO __CALL2EX
	SUBI R26,LOW(-@0)
	SBCI R27,HIGH(-@0)
	CALL __EEPROMRDD
	ICALL
	.ENDM

	.MACRO __GETW1STACK
	IN   R30,SPL
	IN   R31,SPH
	ADIW R30,@0+1
	LD   R0,Z+
	LD   R31,Z
	MOV  R30,R0
	.ENDM

	.MACRO __GETD1STACK
	IN   R30,SPL
	IN   R31,SPH
	ADIW R30,@0+1
	LD   R0,Z+
	LD   R1,Z+
	LD   R22,Z
	MOVW R30,R0
	.ENDM

	.MACRO __NBST
	BST  R@0,@1
	IN   R30,SREG
	LDI  R31,0x40
	EOR  R30,R31
	OUT  SREG,R30
	.ENDM


	.MACRO __PUTB1SN
	LDD  R26,Y+@0
	LDD  R27,Y+@0+1
	SUBI R26,LOW(-@1)
	SBCI R27,HIGH(-@1)
	ST   X,R30
	.ENDM

	.MACRO __PUTW1SN
	LDD  R26,Y+@0
	LDD  R27,Y+@0+1
	SUBI R26,LOW(-@1)
	SBCI R27,HIGH(-@1)
	ST   X+,R30
	ST   X,R31
	.ENDM

	.MACRO __PUTD1SN
	LDD  R26,Y+@0
	LDD  R27,Y+@0+1
	SUBI R26,LOW(-@1)
	SBCI R27,HIGH(-@1)
	CALL __PUTDP1
	.ENDM

	.MACRO __PUTB1SNS
	LDD  R26,Y+@0
	LDD  R27,Y+@0+1
	ADIW R26,@1
	ST   X,R30
	.ENDM

	.MACRO __PUTW1SNS
	LDD  R26,Y+@0
	LDD  R27,Y+@0+1
	ADIW R26,@1
	ST   X+,R30
	ST   X,R31
	.ENDM

	.MACRO __PUTD1SNS
	LDD  R26,Y+@0
	LDD  R27,Y+@0+1
	ADIW R26,@1
	CALL __PUTDP1
	.ENDM

	.MACRO __PUTB1PMN
	LDS  R26,@0
	LDS  R27,@0+1
	SUBI R26,LOW(-@1)
	SBCI R27,HIGH(-@1)
	ST   X,R30
	.ENDM

	.MACRO __PUTW1PMN
	LDS  R26,@0
	LDS  R27,@0+1
	SUBI R26,LOW(-@1)
	SBCI R27,HIGH(-@1)
	ST   X+,R30
	ST   X,R31
	.ENDM

	.MACRO __PUTD1PMN
	LDS  R26,@0
	LDS  R27,@0+1
	SUBI R26,LOW(-@1)
	SBCI R27,HIGH(-@1)
	CALL __PUTDP1
	.ENDM

	.MACRO __PUTB1PMNS
	LDS  R26,@0
	LDS  R27,@0+1
	ADIW R26,@1
	ST   X,R30
	.ENDM

	.MACRO __PUTW1PMNS
	LDS  R26,@0
	LDS  R27,@0+1
	ADIW R26,@1
	ST   X+,R30
	ST   X,R31
	.ENDM

	.MACRO __PUTD1PMNS
	LDS  R26,@0
	LDS  R27,@0+1
	ADIW R26,@1
	CALL __PUTDP1
	.ENDM

	.MACRO __PUTB1RN
	MOVW R26,R@0
	SUBI R26,LOW(-@1)
	SBCI R27,HIGH(-@1)
	ST   X,R30
	.ENDM

	.MACRO __PUTW1RN
	MOVW R26,R@0
	SUBI R26,LOW(-@1)
	SBCI R27,HIGH(-@1)
	ST   X+,R30
	ST   X,R31
	.ENDM

	.MACRO __PUTD1RN
	MOVW R26,R@0
	SUBI R26,LOW(-@1)
	SBCI R27,HIGH(-@1)
	CALL __PUTDP1
	.ENDM

	.MACRO __PUTB1RNS
	MOVW R26,R@0
	ADIW R26,@1
	ST   X,R30
	.ENDM

	.MACRO __PUTW1RNS
	MOVW R26,R@0
	ADIW R26,@1
	ST   X+,R30
	ST   X,R31
	.ENDM

	.MACRO __PUTD1RNS
	MOVW R26,R@0
	ADIW R26,@1
	CALL __PUTDP1
	.ENDM

	.MACRO __PUTB1RON
	MOV  R26,R@0
	MOV  R27,R@1
	SUBI R26,LOW(-@2)
	SBCI R27,HIGH(-@2)
	ST   X,R30
	.ENDM

	.MACRO __PUTW1RON
	MOV  R26,R@0
	MOV  R27,R@1
	SUBI R26,LOW(-@2)
	SBCI R27,HIGH(-@2)
	ST   X+,R30
	ST   X,R31
	.ENDM

	.MACRO __PUTD1RON
	MOV  R26,R@0
	MOV  R27,R@1
	SUBI R26,LOW(-@2)
	SBCI R27,HIGH(-@2)
	CALL __PUTDP1
	.ENDM

	.MACRO __PUTB1RONS
	MOV  R26,R@0
	MOV  R27,R@1
	ADIW R26,@2
	ST   X,R30
	.ENDM

	.MACRO __PUTW1RONS
	MOV  R26,R@0
	MOV  R27,R@1
	ADIW R26,@2
	ST   X+,R30
	ST   X,R31
	.ENDM

	.MACRO __PUTD1RONS
	MOV  R26,R@0
	MOV  R27,R@1
	ADIW R26,@2
	CALL __PUTDP1
	.ENDM


	.MACRO __GETB1SX
	MOVW R30,R28
	SUBI R30,LOW(-@0)
	SBCI R31,HIGH(-@0)
	LD   R30,Z
	.ENDM

	.MACRO __GETB1HSX
	MOVW R30,R28
	SUBI R30,LOW(-@0)
	SBCI R31,HIGH(-@0)
	LD   R31,Z
	.ENDM

	.MACRO __GETW1SX
	MOVW R30,R28
	SUBI R30,LOW(-@0)
	SBCI R31,HIGH(-@0)
	LD   R0,Z+
	LD   R31,Z
	MOV  R30,R0
	.ENDM

	.MACRO __GETD1SX
	MOVW R30,R28
	SUBI R30,LOW(-@0)
	SBCI R31,HIGH(-@0)
	LD   R0,Z+
	LD   R1,Z+
	LD   R22,Z+
	LD   R23,Z
	MOVW R30,R0
	.ENDM

	.MACRO __GETB2SX
	MOVW R26,R28
	SUBI R26,LOW(-@0)
	SBCI R27,HIGH(-@0)
	LD   R26,X
	.ENDM

	.MACRO __GETW2SX
	MOVW R26,R28
	SUBI R26,LOW(-@0)
	SBCI R27,HIGH(-@0)
	LD   R0,X+
	LD   R27,X
	MOV  R26,R0
	.ENDM

	.MACRO __GETD2SX
	MOVW R26,R28
	SUBI R26,LOW(-@0)
	SBCI R27,HIGH(-@0)
	LD   R0,X+
	LD   R1,X+
	LD   R24,X+
	LD   R25,X
	MOVW R26,R0
	.ENDM

	.MACRO __GETBRSX
	MOVW R30,R28
	SUBI R30,LOW(-@1)
	SBCI R31,HIGH(-@1)
	LD   R@0,Z
	.ENDM

	.MACRO __GETWRSX
	MOVW R30,R28
	SUBI R30,LOW(-@2)
	SBCI R31,HIGH(-@2)
	LD   R@0,Z+
	LD   R@1,Z
	.ENDM

	.MACRO __GETBRSX2
	MOVW R26,R28
	SUBI R26,LOW(-@1)
	SBCI R27,HIGH(-@1)
	LD   R@0,X
	.ENDM

	.MACRO __GETWRSX2
	MOVW R26,R28
	SUBI R26,LOW(-@2)
	SBCI R27,HIGH(-@2)
	LD   R@0,X+
	LD   R@1,X
	.ENDM

	.MACRO __LSLW8SX
	MOVW R30,R28
	SUBI R30,LOW(-@0)
	SBCI R31,HIGH(-@0)
	LD   R31,Z
	CLR  R30
	.ENDM

	.MACRO __PUTB1SX
	MOVW R26,R28
	SUBI R26,LOW(-@0)
	SBCI R27,HIGH(-@0)
	ST   X,R30
	.ENDM

	.MACRO __PUTW1SX
	MOVW R26,R28
	SUBI R26,LOW(-@0)
	SBCI R27,HIGH(-@0)
	ST   X+,R30
	ST   X,R31
	.ENDM

	.MACRO __PUTD1SX
	MOVW R26,R28
	SUBI R26,LOW(-@0)
	SBCI R27,HIGH(-@0)
	ST   X+,R30
	ST   X+,R31
	ST   X+,R22
	ST   X,R23
	.ENDM

	.MACRO __CLRW1SX
	MOVW R26,R28
	SUBI R26,LOW(-@0)
	SBCI R27,HIGH(-@0)
	ST   X+,R30
	ST   X,R30
	.ENDM

	.MACRO __CLRD1SX
	MOVW R26,R28
	SUBI R26,LOW(-@0)
	SBCI R27,HIGH(-@0)
	ST   X+,R30
	ST   X+,R30
	ST   X+,R30
	ST   X,R30
	.ENDM

	.MACRO __PUTB2SX
	MOVW R30,R28
	SUBI R30,LOW(-@0)
	SBCI R31,HIGH(-@0)
	ST   Z,R26
	.ENDM

	.MACRO __PUTW2SX
	MOVW R30,R28
	SUBI R30,LOW(-@0)
	SBCI R31,HIGH(-@0)
	ST   Z+,R26
	ST   Z,R27
	.ENDM

	.MACRO __PUTD2SX
	MOVW R30,R28
	SUBI R30,LOW(-@0)
	SBCI R31,HIGH(-@0)
	ST   Z+,R26
	ST   Z+,R27
	ST   Z+,R24
	ST   Z,R25
	.ENDM

	.MACRO __PUTBSRX
	MOVW R30,R28
	SUBI R30,LOW(-@1)
	SBCI R31,HIGH(-@1)
	ST   Z,R@0
	.ENDM

	.MACRO __PUTWSRX
	MOVW R30,R28
	SUBI R30,LOW(-@2)
	SBCI R31,HIGH(-@2)
	ST   Z+,R@0
	ST   Z,R@1
	.ENDM

	.MACRO __PUTB1SNX
	MOVW R26,R28
	SUBI R26,LOW(-@0)
	SBCI R27,HIGH(-@0)
	LD   R0,X+
	LD   R27,X
	MOV  R26,R0
	SUBI R26,LOW(-@1)
	SBCI R27,HIGH(-@1)
	ST   X,R30
	.ENDM

	.MACRO __PUTW1SNX
	MOVW R26,R28
	SUBI R26,LOW(-@0)
	SBCI R27,HIGH(-@0)
	LD   R0,X+
	LD   R27,X
	MOV  R26,R0
	SUBI R26,LOW(-@1)
	SBCI R27,HIGH(-@1)
	ST   X+,R30
	ST   X,R31
	.ENDM

	.MACRO __PUTD1SNX
	MOVW R26,R28
	SUBI R26,LOW(-@0)
	SBCI R27,HIGH(-@0)
	LD   R0,X+
	LD   R27,X
	MOV  R26,R0
	SUBI R26,LOW(-@1)
	SBCI R27,HIGH(-@1)
	ST   X+,R30
	ST   X+,R31
	ST   X+,R22
	ST   X,R23
	.ENDM

	.MACRO __MULBRR
	MULS R@0,R@1
	MOVW R30,R0
	.ENDM

	.MACRO __MULBRRU
	MUL  R@0,R@1
	MOVW R30,R0
	.ENDM

	.MACRO __MULBRR0
	MULS R@0,R@1
	.ENDM

	.MACRO __MULBRRU0
	MUL  R@0,R@1
	.ENDM

	.MACRO __MULBNWRU
	LDI  R26,@2
	MUL  R26,R@0
	MOVW R30,R0
	MUL  R26,R@1
	ADD  R31,R0
	.ENDM

;NAME DEFINITIONS FOR GLOBAL VARIABLES ALLOCATED TO REGISTERS
	.DEF _P_Add=R5
	.DEF _Code_tay_cam1=R4
	.DEF _Code_tay_cam2=R7
	.DEF _Code_tay_cam3=R6
	.DEF _Code_tay_cam4=R9
	.DEF _data_receive_2=R8
	.DEF _result=R11

	.CSEG
	.ORG 0x00

;START OF CODE MARKER
__START_OF_CODE:

;INTERRUPT VECTORS
	JMP  __RESET
	JMP  0x00
	JMP  0x00
	JMP  0x00
	JMP  0x00
	JMP  0x00
	JMP  0x00
	JMP  0x00
	JMP  0x00
	JMP  0x00
	JMP  0x00
	JMP  _timer0_ovf
	JMP  0x00
	JMP  0x00
	JMP  0x00
	JMP  0x00
	JMP  0x00
	JMP  0x00
	JMP  0x00
	JMP  0x00
	JMP  0x00

_temp:
	.DB  0x54,0x0,0x30,0x0,0xFF,0x1,0x1,0x11
	.DB  0x11,0xF1,0xF1,0x11,0x11,0x1,0xF1,0xF1
	.DB  0x91,0x91,0x91,0x1,0xF1,0xF1,0xF1,0xC1
	.DB  0x1,0xC1,0xF1,0xF1,0xF1,0x1,0xF1,0xF1
	.DB  0x11,0x11,0xF1,0xE1,0x1,0xF1,0xF1,0x91
	.DB  0x91,0x91,0x1,0xF1,0xF1,0x11,0x11,0xF1
	.DB  0xE1,0x1,0x1,0xC1,0xF1,0x31,0xF1,0xC1
	.DB  0x1,0x1,0x11,0x11,0xF1,0xF1,0x11,0x11
	.DB  0x1,0xF1,0xF1,0x1,0x1,0xF1,0xF1,0x1
	.DB  0xF1,0xF1,0x11,0x11,0xF1,0xE1,0x1,0xF1
	.DB  0xF1,0x91,0x91,0x91,0x1,0x1,0x1,0xFF
	.DB  0xFF,0x0,0x0,0x0,0x0,0xF,0xF,0x0
	.DB  0x0,0x0,0xF,0xF,0x8,0x8,0x8,0x0
	.DB  0xF,0xF,0x0,0x7,0xE,0x7,0x0,0xF
	.DB  0xF,0x0,0xF,0xF,0x1,0x1,0x1,0x0
	.DB  0x0,0xF,0xF,0x8,0x8,0x8,0x0,0xF
	.DB  0xF,0x1,0x3,0x7,0xC,0x8,0xE,0xF
	.DB  0x3,0x2,0x3,0xF,0xE,0x0,0x0,0x0
	.DB  0xF,0xF,0x0,0x0,0x0,0x7,0xF,0x8
	.DB  0x8,0xF,0x7,0x0,0xF,0xF,0x1,0x3
	.DB  0x7,0xC,0x8,0xF,0xF,0x8,0x8,0x8
	.DB  0x0,0x0,0x0,0xFF,0xFF,0x0,0x0,0x0
	.DB  0x0,0x0,0x0,0xFC,0x82,0x81,0xA1,0xA2
	.DB  0xFC,0x0,0x0,0x0,0x40,0x40,0x40,0x40
	.DB  0x0,0x0,0x0,0x0,0x0,0x0,0x0,0x0
	.DB  0x0,0x0,0x0,0x0,0x0,0x0,0x0,0x0
	.DB  0x0,0x0,0x0,0x0,0x0,0x0,0x0,0x0
	.DB  0x0,0x0,0x0,0x0,0x0,0x0,0x0,0x0
	.DB  0x0,0x0,0x0,0x0,0x0,0x80,0xC0,0x40
	.DB  0xC0,0x80,0x0,0x0,0x0,0x0,0x0,0x0
	.DB  0x0,0x0,0x0,0x0,0x0,0x0,0x0,0x0
	.DB  0x0,0x0,0x0,0x0,0x0,0x0,0x0,0xFF
	.DB  0xFF,0x0,0x0,0x0,0x0,0x0,0x0,0xFF
	.DB  0xFF,0xFF,0xFF,0xFF,0xFF,0x0,0x0,0x0
	.DB  0x40,0x44,0x44,0x40,0x0,0x0,0x0,0x0
	.DB  0x0,0x0,0x0,0x0,0x0,0x0,0x0,0x0
	.DB  0x60,0x70,0x78,0x38,0x18,0x18,0x38,0xF8
	.DB  0xF0,0xE0,0x0,0x0,0xC0,0xF0,0xF0,0x38
	.DB  0x18,0x18,0x38,0x78,0x30,0x20,0x0,0x0
	.DB  0x0,0x7,0xC,0x8,0xC,0x7,0x0,0x0
	.DB  0x0,0x80,0xE0,0xF0,0xF0,0x78,0x38,0x38
	.DB  0x38,0x38,0x70,0xF0,0xE0,0x40,0x0,0x0
	.DB  0x0,0x0,0x0,0xFF,0xFF,0x0,0x0,0xF0
	.DB  0xFC,0xFE,0xFF,0xFF,0xFF,0xFF,0xFF,0xFF
	.DB  0xFF,0xFF,0xFF,0xFE,0xFC,0xF0,0x0,0x0
	.DB  0x0,0x0,0x0,0x0,0x0,0x0,0x0,0x0
	.DB  0x0,0x0,0x0,0x0,0x0,0x80,0xE0,0xF0
	.DB  0x78,0x3C,0x1E,0xF,0x7,0x1,0x0,0x0
	.DB  0x7F,0xFF,0xFF,0x86,0x3,0x3,0x87,0xFF
	.DB  0xFE,0x78,0x0,0x0,0x0,0x0,0x0,0x0
	.DB  0x0,0x0,0x0,0x0,0x0,0x3F,0xFF,0xFF
	.DB  0xE0,0xC0,0x80,0x80,0x80,0x80,0xC0,0xE0
	.DB  0xE0,0x40,0x0,0x0,0x0,0x0,0x0,0xFF
	.DB  0xFF,0x80,0x80,0x81,0x87,0x8F,0x9F,0x9F
	.DB  0xBF,0xBF,0xBF,0xBF,0xBF,0x9F,0x9F,0x8F
	.DB  0x87,0x81,0x80,0x80,0x80,0x80,0x80,0x80
	.DB  0x80,0x80,0x80,0x80,0x80,0x80,0x80,0x80
	.DB  0x83,0x83,0x83,0x83,0x83,0x83,0x83,0x83
	.DB  0x83,0x83,0x80,0x80,0x80,0x81,0x81,0x83
	.DB  0x83,0x83,0x83,0x81,0x81,0x80,0x80,0x80
	.DB  0x80,0x80,0x80,0x80,0x80,0x80,0x80,0x80
	.DB  0x80,0x80,0x80,0x81,0x81,0x83,0x83,0x83
	.DB  0x83,0x83,0x81,0x81,0x80,0x80,0x80,0x80
	.DB  0x80,0x80,0x80,0xFF
_font5x7:
	.DB  0x5,0x7,0x20,0x60,0x0,0x0,0x0,0x0
	.DB  0x0,0x0,0x0,0x4,0xA,0x4,0x0,0x7
	.DB  0x0,0x7,0x0,0x14,0x7F,0x14,0x7F,0x14
	.DB  0x24,0x2A,0x7F,0x2A,0x12,0x23,0x13,0x8
	.DB  0x64,0x62,0x36,0x49,0x55,0x22,0x50,0x0
	.DB  0x5,0x3,0x0,0x0,0x0,0x1C,0x22,0x41
	.DB  0x0,0x0,0x41,0x22,0x1C,0x0,0x8,0x2A
	.DB  0x1C,0x2A,0x8,0x8,0x8,0x3E,0x8,0x8
	.DB  0x0,0x50,0x30,0x0,0x0,0x8,0x8,0x8
	.DB  0x8,0x8,0x0,0x30,0x30,0x0,0x0,0x20
	.DB  0x10,0x8,0x4,0x2,0x3E,0x51,0x49,0x45
	.DB  0x3E,0x0,0x42,0x7F,0x40,0x0,0x42,0x61
	.DB  0x51,0x49,0x46,0x21,0x41,0x45,0x4B,0x31
	.DB  0x18,0x14,0x12,0x7F,0x10,0x27,0x45,0x45
	.DB  0x45,0x39,0x3C,0x4A,0x49,0x49,0x30,0x1
	.DB  0x71,0x9,0x5,0x3,0x36,0x49,0x49,0x49
	.DB  0x36,0x6,0x49,0x49,0x29,0x1E,0x0,0x36
	.DB  0x36,0x0,0x0,0x0,0x56,0x36,0x0,0x0
	.DB  0x0,0x8,0x14,0x22,0x41,0x14,0x14,0x14
	.DB  0x14,0x14,0x41,0x22,0x14,0x8,0x0,0x2
	.DB  0x1,0x51,0x9,0x6,0x32,0x49,0x79,0x41
	.DB  0x3E,0x7E,0x11,0x11,0x11,0x7E,0x7F,0x49
	.DB  0x49,0x49,0x36,0x3E,0x41,0x41,0x41,0x22
	.DB  0x7F,0x41,0x41,0x22,0x1C,0x7F,0x49,0x49
	.DB  0x49,0x41,0x7F,0x9,0x9,0x1,0x1,0x3E
	.DB  0x41,0x41,0x51,0x32,0x7F,0x8,0x8,0x8
	.DB  0x7F,0x0,0x41,0x7F,0x41,0x0,0x20,0x40
	.DB  0x41,0x3F,0x1,0x7F,0x8,0x14,0x22,0x41
	.DB  0x7F,0x40,0x40,0x40,0x40,0x7F,0x2,0x4
	.DB  0x2,0x7F,0x7F,0x4,0x8,0x10,0x7F,0x3E
	.DB  0x41,0x41,0x41,0x3E,0x7F,0x9,0x9,0x9
	.DB  0x6,0x3E,0x41,0x51,0x21,0x5E,0x7F,0x9
	.DB  0x19,0x29,0x46,0x46,0x49,0x49,0x49,0x31
	.DB  0x1,0x1,0x7F,0x1,0x1,0x3F,0x40,0x40
	.DB  0x40,0x3F,0x1F,0x20,0x40,0x20,0x1F,0x7F
	.DB  0x20,0x18,0x20,0x7F,0x63,0x14,0x8,0x14
	.DB  0x63,0x3,0x4,0x78,0x4,0x3,0x61,0x51
	.DB  0x49,0x45,0x43,0x0,0x0,0x7F,0x41,0x41
	.DB  0x2,0x4,0x8,0x10,0x20,0x41,0x41,0x7F
	.DB  0x0,0x0,0x4,0x2,0x1,0x2,0x4,0x40
	.DB  0x40,0x40,0x40,0x40,0x0,0x1,0x2,0x4
	.DB  0x0,0x20,0x54,0x54,0x54,0x78,0x7F,0x48
	.DB  0x44,0x44,0x38,0x38,0x44,0x44,0x44,0x20
	.DB  0x38,0x44,0x44,0x48,0x7F,0x38,0x54,0x54
	.DB  0x54,0x18,0x8,0x7E,0x9,0x1,0x2,0x8
	.DB  0x14,0x54,0x54,0x3C,0x7F,0x8,0x4,0x4
	.DB  0x78,0x0,0x44,0x7D,0x40,0x0,0x20,0x40
	.DB  0x44,0x3D,0x0,0x0,0x7F,0x10,0x28,0x44
	.DB  0x0,0x41,0x7F,0x40,0x0,0x7C,0x4,0x18
	.DB  0x4,0x78,0x7C,0x8,0x4,0x4,0x78,0x38
	.DB  0x44,0x44,0x44,0x38,0x7C,0x14,0x14,0x14
	.DB  0x8,0x8,0x14,0x14,0x18,0x7C,0x7C,0x8
	.DB  0x4,0x4,0x8,0x48,0x54,0x54,0x54,0x20
	.DB  0x4,0x3F,0x44,0x40,0x20,0x3C,0x40,0x40
	.DB  0x20,0x7C,0x1C,0x20,0x40,0x20,0x1C,0x3C
	.DB  0x40,0x30,0x40,0x3C,0x44,0x28,0x10,0x28
	.DB  0x44,0xC,0x50,0x50,0x50,0x3C,0x44,0x64
	.DB  0x54,0x4C,0x44,0x0,0x8,0x36,0x41,0x0
	.DB  0x0,0x0,0x7F,0x0,0x0,0x0,0x41,0x36
	.DB  0x8,0x0,0x2,0x1,0x2,0x4,0x2,0x7F
	.DB  0x41,0x41,0x41,0x7F
_big_letter_10x14:
	.DB  0x0,0xE,0x20,0x60,0xA,0xA,0xA,0xA
	.DB  0xA,0xA,0xA,0xA,0xA,0xA,0xA,0xA
	.DB  0xA,0xA,0xA,0xA,0xA,0xA,0xA,0xA
	.DB  0xA,0xA,0xA,0xA,0xA,0xA,0xA,0xA
	.DB  0xA,0xA,0xA,0xA,0xA,0xA,0xA,0xA
	.DB  0xA,0xA,0xA,0xA,0xA,0xA,0xA,0xA
	.DB  0x9,0xA,0xA,0xA,0xA,0xA,0xA,0xA
	.DB  0xA,0xA,0xA,0xA,0xA,0xA,0xA,0xA
	.DB  0xA,0xA,0xA,0xA,0xA,0xA,0xA,0xA
	.DB  0xA,0xA,0xA,0xA,0xA,0xA,0xA,0xA
	.DB  0xA,0xA,0xA,0xA,0xA,0xA,0xA,0xA
	.DB  0xA,0xA,0x9,0xA,0xA,0xA,0xA,0xA
	.DB  0xA,0xA,0xA,0xA,0x0,0x0,0x0,0x0
	.DB  0x0,0x0,0x0,0x0,0x0,0x0,0x0,0x0
	.DB  0x0,0x0,0x0,0x0,0x0,0x0,0x0,0x0
	.DB  0x0,0x0,0x0,0x0,0x0,0x0,0x0,0x0
	.DB  0x0,0x0,0x0,0x0,0x0,0x0,0x0,0x0
	.DB  0x0,0x0,0x0,0x0,0x0,0x0,0x0,0x0
	.DB  0x0,0x0,0x0,0x0,0x0,0x0,0x0,0x0
	.DB  0x0,0x0,0x0,0x0,0x0,0x0,0x0,0x0
	.DB  0x0,0x0,0x0,0x0,0x0,0x0,0x0,0x0
	.DB  0x0,0x0,0x0,0x0,0x0,0x0,0x0,0x0
	.DB  0x0,0x0,0x0,0x0,0x0,0x0,0x0,0x0
	.DB  0x0,0x0,0x0,0x0,0x0,0x0,0x0,0x0
	.DB  0x0,0x0,0x0,0x0,0x0,0x0,0x0,0x0
	.DB  0x0,0x0,0x0,0x0,0x0,0x0,0x0,0x0
	.DB  0x0,0x0,0x0,0x0,0x0,0x0,0x0,0x0
	.DB  0x0,0x0,0x0,0x0,0x0,0x0,0x0,0x0
	.DB  0x0,0x0,0x0,0x0,0x0,0x0,0x0,0x0
	.DB  0x0,0x0,0x0,0x0,0x0,0x0,0x0,0x0
	.DB  0x0,0x0,0x0,0x0,0x0,0x0,0x0,0x0
	.DB  0x0,0x0,0x0,0x0,0x0,0x0,0x0,0x0
	.DB  0x0,0x0,0x0,0x0,0x0,0x0,0x0,0x0
	.DB  0x0,0x0,0x0,0x0,0x0,0x0,0x0,0x0
	.DB  0x0,0x0,0x0,0x0,0x0,0x0,0x0,0x0
	.DB  0x0,0x0,0x0,0x0,0x0,0x0,0x0,0x0
	.DB  0x0,0x0,0x0,0x0,0x0,0x0,0x0,0x0
	.DB  0x0,0x0,0x0,0x0,0x0,0x0,0x0,0x0
	.DB  0x0,0x0,0x0,0x0,0x0,0x0,0x0,0x0
	.DB  0x0,0x0,0x0,0x0,0x0,0x0,0x0,0x0
	.DB  0x0,0x0,0x0,0x0,0x0,0x0,0x0,0x0
	.DB  0x0,0x0,0x0,0x0,0x0,0x0,0x0,0x0
	.DB  0x0,0x0,0x0,0x0,0x0,0x0,0x0,0x0
	.DB  0x0,0x0,0x0,0x0,0x0,0x0,0x0,0x0
	.DB  0x0,0x0,0x0,0x0,0x0,0x0,0x0,0x0
	.DB  0x0,0x0,0x0,0x0,0x0,0x0,0x0,0x0
	.DB  0x0,0x0,0x0,0x0,0x0,0x0,0x0,0x0
	.DB  0x0,0x0,0x0,0x0,0x0,0x0,0x0,0x0
	.DB  0x0,0x0,0x0,0x0,0x0,0x0,0x0,0x0
	.DB  0x0,0x0,0x0,0x0,0x0,0x0,0x0,0x0
	.DB  0x0,0x0,0x0,0x0,0x0,0x0,0x0,0x0
	.DB  0x0,0x0,0x0,0x0,0x0,0x0,0x0,0x0
	.DB  0x0,0x0,0x0,0x0,0x0,0xFC,0xFE,0x3
	.DB  0x3,0x3,0x3,0xFE,0xFC,0x0,0x0,0xF
	.DB  0x1F,0x30,0x30,0x30,0x30,0x1F,0xF,0x0
	.DB  0x0,0x18,0xC,0x6,0xFF,0xFF,0x0,0x0
	.DB  0x0,0x0,0x0,0x30,0x30,0x30,0x3F,0x3F
	.DB  0x30,0x30,0x30,0x0,0x0,0xC,0xE,0x3
	.DB  0x3,0x83,0xC3,0x7E,0x3C,0x0,0x0,0x38
	.DB  0x3C,0x36,0x33,0x31,0x30,0x30,0x30,0x0
	.DB  0x0,0xC,0xE,0xC3,0xC3,0xC3,0xC3,0xFE
	.DB  0x3C,0x0,0x0,0xC,0x1C,0x30,0x30,0x30
	.DB  0x30,0x1F,0xF,0x0,0x0,0xC0,0xE0,0xB0
	.DB  0x98,0x8C,0x86,0xFF,0xFF,0x80,0x0,0x1
	.DB  0x1,0x1,0x1,0x1,0x1,0x3F,0x3F,0x1
	.DB  0x0,0xFF,0xFF,0xC3,0xC3,0xC3,0xC3,0x83
	.DB  0x3,0x0,0x0,0x30,0x30,0x30,0x30,0x30
	.DB  0x30,0x1F,0xF,0x0,0x0,0xFC,0xFE,0xC3
	.DB  0xC3,0xC3,0xC3,0x8E,0xC,0x0,0x0,0xF
	.DB  0x1F,0x30,0x30,0x30,0x30,0x1F,0xF,0x0
	.DB  0x0,0x3,0x3,0x3,0x3,0xC3,0xF3,0x3F
	.DB  0xF,0x0,0x0,0x0,0x0,0x0,0x3E,0x3F
	.DB  0x3,0x0,0x0,0x0,0x0,0x3C,0xFE,0xC3
	.DB  0xC3,0xC3,0xC3,0xFE,0x3C,0x0,0x0,0xF
	.DB  0x1F,0x30,0x30,0x30,0x30,0x1F,0xF,0x0
	.DB  0x0,0x7C,0xFE,0xC3,0xC3,0xC3,0xC3,0xFE
	.DB  0xFC,0x0,0x0,0xC,0x1C,0x30,0x30,0x30
	.DB  0x30,0x1F,0xF,0x0,0x0,0x0,0x0,0x18
	.DB  0x3C,0x3C,0x18,0x0,0x0,0x0,0x0,0x0
	.DB  0x0,0x6,0xF,0xF,0x6,0x0,0x0,0x0
	.DB  0x0,0x0,0x0,0x0,0x0,0x0,0x0,0x0
	.DB  0x0,0x0,0x0,0x0,0x0,0x0,0x0,0x0
	.DB  0x0,0x0,0x0,0x0,0x0,0x0,0x0,0x0
	.DB  0x0,0x0,0x0,0x0,0x0,0x0,0x0,0x0
	.DB  0x0,0x0,0x0,0x0,0x0,0x0,0x0,0x0
	.DB  0x0,0x0,0x0,0x0,0x0,0x0,0x0,0x0
	.DB  0x0,0x0,0x0,0x0,0x0,0x0,0x0,0x0
	.DB  0x0,0x0,0x0,0x0,0x0,0x0,0x0,0x0
	.DB  0x0,0x0,0x0,0x0,0x0,0x0,0x0,0x0
	.DB  0x0,0x0,0x0,0x0,0x0,0x0,0x0,0x0
	.DB  0x0,0x0,0x0,0x0,0x0,0x0,0x0,0x0
	.DB  0x0,0x0,0x0,0x0,0x0,0x0,0x0,0x0
	.DB  0x0,0x0,0x0,0x0,0x0,0x0,0x0,0x0
	.DB  0x0,0x0,0x0,0x0,0x0,0x0,0x0,0x0
	.DB  0x0,0x0,0x0,0x0,0x0,0x0,0x0,0x0
	.DB  0xFC,0xFE,0x83,0x83,0x83,0x83,0x83,0x83
	.DB  0xFE,0xFC,0x3F,0x3F,0x1,0x1,0x1,0x1
	.DB  0x1,0x1,0x3F,0x3F,0xFF,0xFF,0xC3,0xC3
	.DB  0xC3,0xC3,0xC3,0xC3,0xFE,0x3C,0x3F,0x3F
	.DB  0x30,0x30,0x30,0x30,0x30,0x30,0x1F,0xF
	.DB  0xF8,0xFC,0x6,0x3,0x3,0x3,0x3,0x3
	.DB  0xE,0xC,0x7,0xF,0x18,0x30,0x30,0x30
	.DB  0x30,0x30,0x1C,0xC,0xFF,0xFF,0x3,0x3
	.DB  0x3,0x3,0x3,0x6,0xFC,0xF8,0x3F,0x3F
	.DB  0x30,0x30,0x30,0x30,0x30,0x18,0xF,0x7
	.DB  0xFF,0xFF,0xC3,0xC3,0xC3,0xC3,0xC3,0xC3
	.DB  0xC3,0x3,0x3F,0x3F,0x30,0x30,0x30,0x30
	.DB  0x30,0x30,0x30,0x30,0xFF,0xFF,0xC3,0xC3
	.DB  0xC3,0xC3,0xC3,0xC3,0x3,0x3,0x3F,0x3F
	.DB  0x0,0x0,0x0,0x0,0x0,0x0,0x0,0x0
	.DB  0xF8,0xFC,0x6,0x3,0x3,0x3,0x83,0x83
	.DB  0x8E,0x8C,0x7,0xF,0x18,0x30,0x30,0x30
	.DB  0x31,0x31,0x1F,0xF,0xFF,0xFF,0xC0,0xC0
	.DB  0xC0,0xC0,0xC0,0xC0,0xFF,0xFF,0x3F,0x3F
	.DB  0x0,0x0,0x0,0x0,0x0,0x0,0x3F,0x3F
	.DB  0x0,0x0,0x3,0x3,0xFF,0xFF,0x3,0x3
	.DB  0x0,0x0,0x0,0x0,0x30,0x30,0x3F,0x3F
	.DB  0x30,0x30,0x0,0x0,0x0,0x0,0x0,0x3
	.DB  0x3,0xFF,0xFF,0x3,0x3,0x0,0xC,0x1C
	.DB  0x30,0x30,0x30,0x1F,0xF,0x0,0x0,0x0
	.DB  0xFF,0xFF,0xC0,0xE0,0x30,0x18,0xC,0x6
	.DB  0x3,0x1,0x3F,0x3F,0x0,0x1,0x3,0x6
	.DB  0xC,0x18,0x30,0x20,0xFF,0xFF,0x0,0x0
	.DB  0x0,0x0,0x0,0x0,0x0,0x3F,0x3F,0x30
	.DB  0x30,0x30,0x30,0x30,0x30,0x30,0xFF,0xFF
	.DB  0x1C,0x70,0xC0,0xC0,0x70,0x1C,0xFF,0xFF
	.DB  0x3F,0x3F,0x0,0x0,0x1,0x1,0x0,0x0
	.DB  0x3F,0x3F,0xFF,0xFF,0xE,0x38,0xE0,0x80
	.DB  0x0,0x0,0xFF,0xFF,0x3F,0x3F,0x0,0x0
	.DB  0x0,0x3,0xE,0x18,0x3F,0x3F,0xF8,0xFC
	.DB  0x6,0x3,0x3,0x3,0x3,0x6,0xFC,0xF8
	.DB  0x7,0xF,0x18,0x30,0x30,0x30,0x30,0x18
	.DB  0xF,0x7,0xFF,0xFF,0x83,0x83,0x83,0x83
	.DB  0x83,0xC7,0xFE,0x7C,0x3F,0x3F,0x1,0x1
	.DB  0x1,0x1,0x1,0x1,0x0,0x0,0xF8,0xFC
	.DB  0x6,0x3,0x3,0x3,0x3,0x6,0xFC,0xF8
	.DB  0x7,0xF,0x18,0x30,0x30,0x34,0x3C,0x18
	.DB  0x3F,0x27,0xFF,0xFF,0xC3,0xC3,0xC3,0xC3
	.DB  0xE7,0x7E,0x3C,0x0,0x3F,0x3F,0x1,0x3
	.DB  0x7,0xE,0x1C,0x38,0x30,0x20,0x3C,0x7E
	.DB  0xC3,0xC3,0xC3,0xC3,0xC3,0xC3,0x8E,0xC
	.DB  0xC,0x1C,0x30,0x30,0x30,0x30,0x30,0x30
	.DB  0x1F,0xF,0x3,0x3,0x3,0x3,0xFF,0xFF
	.DB  0x3,0x3,0x3,0x3,0x0,0x0,0x0,0x0
	.DB  0x3F,0x3F,0x0,0x0,0x0,0x0,0xFF,0xFF
	.DB  0x0,0x0,0x0,0x0,0x0,0x0,0xFF,0xFF
	.DB  0xF,0x1F,0x30,0x30,0x30,0x30,0x30,0x30
	.DB  0x1F,0xF,0xFF,0xFF,0x0,0x0,0x0,0x0
	.DB  0x0,0x0,0xFF,0xFF,0x3,0x7,0xC,0x18
	.DB  0x30,0x30,0x18,0xC,0x7,0x3,0xFF,0xFF
	.DB  0x0,0x80,0xE0,0xE0,0x80,0x0,0xFF,0xFF
	.DB  0x3F,0x3F,0xE,0x3,0x0,0x0,0x3,0xE
	.DB  0x3F,0x3F,0xF,0x1F,0xB0,0xE0,0xC0,0xC0
	.DB  0xE0,0xB0,0x1F,0xF,0x3E,0x3F,0x3,0x1
	.DB  0x0,0x0,0x1,0x3,0x3F,0x3E,0x1F,0x3F
	.DB  0x60,0xC0,0x80,0x80,0xC0,0x60,0x3F,0x1F
	.DB  0x0,0x0,0x0,0x0,0x3F,0x3F,0x0,0x0
	.DB  0x0,0x0,0x3,0x3,0x3,0x83,0xC3,0x63
	.DB  0x33,0x1B,0xF,0x7,0x3C,0x3E,0x33,0x31
	.DB  0x30,0x30,0x30,0x30,0x30,0x30,0x0,0x0
	.DB  0x0,0x0,0x0,0x0,0x0,0x0,0x0,0x0
	.DB  0x0,0x0,0x0,0x0,0x0,0x0,0x0,0x0
	.DB  0x0,0x0,0x0,0x0,0x0,0x0,0x0,0x0
	.DB  0x0,0x0,0x0,0x0,0x0,0x0,0x0,0x0
	.DB  0x0,0x0,0x0,0x0,0x0,0x0,0x0,0x0
	.DB  0x0,0x0,0x0,0x0,0x0,0x0,0x0,0x0
	.DB  0x0,0x0,0x0,0x0,0x0,0x0,0x0,0x0
	.DB  0x0,0x0,0x0,0x0,0x0,0x0,0x0,0x0
	.DB  0x0,0x0,0x0,0x0,0x0,0x0,0x0,0x0
	.DB  0x0,0x0,0x0,0x0,0x0,0x0,0x0,0x0
	.DB  0x0,0x0,0x0,0x0,0x0,0x0,0x0,0x0
	.DB  0x0,0x0,0x0,0x0,0x0,0x0,0x0,0x0
	.DB  0x0,0x0,0x0,0x0,0x0,0x0,0x0,0x0
	.DB  0x0,0x0,0x0,0x0,0x0,0x0,0x0,0x0
	.DB  0x0,0x0,0x0,0x0,0x0,0x0,0x0,0x0
	.DB  0x0,0x0,0x0,0x0,0x0,0x0,0x0,0x0
	.DB  0x0,0x0,0x0,0x0,0x0,0x0,0x0,0x0
	.DB  0x0,0x0,0x0,0x0,0x0,0x0,0x0,0x0
	.DB  0x0,0x0,0x0,0x0,0x0,0x0,0x0,0x0
	.DB  0x0,0x0,0x0,0x0,0x0,0x0,0x0,0x0
	.DB  0x0,0x0,0x0,0x0,0x0,0x0,0x0,0x0
	.DB  0x0,0x0,0x0,0x0,0x0,0x0,0x0,0x0
	.DB  0x0,0x0,0x0,0x0,0x0,0x0,0x0,0x0
	.DB  0x0,0x0,0x0,0x0,0x0,0x0,0x0,0x0
	.DB  0x0,0x0,0x0,0x0,0x0,0x0,0x0,0x0
	.DB  0x0,0x0,0x0,0x0,0x0,0x0,0x0,0x0
	.DB  0x0,0x0,0x0,0x0,0x0,0x0,0x0,0x0
	.DB  0x0,0x0,0x0,0x0,0x0,0x0,0x0,0x0
	.DB  0x0,0x0,0x0,0x0,0x0,0x0,0x0,0x0
	.DB  0x0,0x0,0x0,0x0,0x0,0x0,0x0,0x0
	.DB  0x0,0x0,0x0,0x0,0x0,0x0,0x0,0x0
	.DB  0x0,0x0,0x0,0x0,0x0,0x0,0x0,0x0
	.DB  0x0,0x0,0x0,0x0,0x0,0x0,0x0,0x0
	.DB  0x0,0x0,0x0,0x0,0x0,0x0,0x0,0x0
	.DB  0x0,0x0,0x0,0x0,0x0,0x0,0x0,0x0
	.DB  0x0,0x0,0x0,0x0,0x0,0x0,0x0,0x0
	.DB  0x0,0x0,0x0,0x0,0x0,0x0,0x0,0x0
	.DB  0x0,0x0,0x0,0x0,0x0,0x0,0x0,0x0
	.DB  0x0,0x0,0x0,0x0,0x0,0x0,0x0,0x0
	.DB  0x0,0x0,0x0,0x0,0x0,0x0,0x0,0x0
	.DB  0x0,0x0,0x0,0x0,0x0,0x0,0x0,0x0
	.DB  0x0,0x0,0x0,0x0,0x0,0x0,0x0,0x0
	.DB  0x0,0x0,0x0,0x0,0x0,0x0,0x0,0x0
	.DB  0x0,0x0,0x0,0x0,0x0,0x0,0x0,0x0
	.DB  0x0,0x0,0x0,0x0,0x0,0x0,0x0,0x0
	.DB  0x0,0x0,0x0,0x0,0x0,0x0,0x0,0x0
	.DB  0x0,0x0,0x0,0x0,0x0,0x0,0x0,0x0
	.DB  0x0,0x0,0x0,0x0,0x0,0x0,0x0,0x0
	.DB  0x0,0x0,0x0,0x0,0x0,0x0,0x0,0x0
	.DB  0x0,0x0,0x0,0x0,0x0,0x0,0x0,0x0
	.DB  0x0,0x0,0x0,0x0,0x0,0x0,0x0,0x0
	.DB  0x0,0x0,0x0,0x0,0x0,0x0,0x0,0x0
	.DB  0x0,0x0,0x0,0x0,0x0,0x0,0x0,0x0
	.DB  0x0,0x0,0x0,0x0,0x0,0x0,0x0,0x0
	.DB  0x0,0x0,0x0,0x0,0x0,0x0,0x0,0x0
	.DB  0x0,0x0,0x0,0x0,0x0,0x0,0x0,0x0
	.DB  0x0,0x0,0x0,0x0,0x0,0x0,0x0,0x0
	.DB  0x0,0x0,0x0,0x0,0x0,0x0,0x0,0x0
	.DB  0x0,0x0,0x0,0x0,0x0,0x0,0x0,0x0
	.DB  0x0,0x0,0x0,0x0,0x0,0x0,0x0,0x0
	.DB  0x0,0x0,0x0,0x0,0x0,0x0,0x0,0x0
	.DB  0x0,0x0,0x0,0x0,0x0,0x0,0x0,0x0
	.DB  0x0,0x0,0x0,0x0,0x0,0x0,0x0,0x0
	.DB  0x0,0x0,0x0,0x0,0x0,0x0,0x0,0x0
	.DB  0x0,0x0,0x0,0x0,0x0,0x0,0x0,0x0
	.DB  0x0,0x0,0x0,0x0,0x0,0x0,0x0,0x0
	.DB  0x0,0x0,0x0,0x0,0x0,0x0,0x0,0x0
	.DB  0x0,0x0,0x20,0x60,0xE0,0xE0,0xE0,0xE0
	.DB  0xE0,0x60,0x20,0x0,0x0,0x0,0x1,0x3
	.DB  0x1,0x0,0x0,0x0,0x0,0x0,0x0,0x0
	.DB  0x0,0x0,0x0,0x0,0x0,0x0,0x0,0x0
	.DB  0x0,0x0,0x0,0x0,0x0,0x0,0x0,0x0
	.DB  0x0,0x0,0x0,0x0,0x0,0x0,0x0,0x0
	.DB  0x0,0x0,0x0,0x0,0x0,0x0,0x0,0x0
	.DB  0x0,0x0,0x0,0x0,0x0,0x0,0x0,0x0
	.DB  0x0,0x0,0x0,0x0,0x0,0x0,0x0,0x0
	.DB  0x0,0x0,0x0,0x0,0x0,0x0,0x0,0x0
	.DB  0x0,0x0,0x0,0x0,0x0,0x0,0x0,0x0
	.DB  0x0,0x0,0x0,0x0,0x0,0x0,0x0,0x0
	.DB  0x0,0x0,0x0,0x0,0x0,0x0,0x0,0x0
	.DB  0x0,0x0,0x0,0x0,0x0,0x0,0x0,0x0
	.DB  0x0,0x0,0x0,0x0,0x0,0x0,0x0,0x0
	.DB  0x0,0x0,0x0,0x0,0x0,0x0,0x0,0x0
	.DB  0x0,0x0,0x0,0x0,0x0,0x0,0x0,0x0
	.DB  0x0,0x0,0x0,0x0,0x0,0x0,0x0,0x0
	.DB  0x0,0x0,0x0,0x0,0x0,0x0,0x0,0x0
	.DB  0x0,0x0,0x0,0x0,0x0,0x0,0x0,0x0
	.DB  0x0,0x0,0x0,0x0,0x0,0x0,0x0,0x0
	.DB  0x0,0x0,0x0,0x0,0x0,0x0,0x0,0x0
	.DB  0x0,0x0,0x0,0x0,0x0,0x0,0x0,0x0
	.DB  0x0,0x0,0x0,0x0,0x0,0x0,0x0,0x0
	.DB  0x0,0x0,0x0,0x0,0x0,0x0,0x0,0x0
_tiny_letter:
	.DB  0x0,0x5,0x20,0x60,0x1,0x4,0x4,0x4
	.DB  0x4,0x4,0x4,0x4,0x4,0x4,0x4,0x4
	.DB  0x4,0x4,0x4,0x3,0x4,0x3,0x4,0x4
	.DB  0x4,0x4,0x4,0x4,0x4,0x4,0x3,0x4
	.DB  0x4,0x4,0x4,0x4,0x4,0x4,0x4,0x4
	.DB  0x4,0x4,0x4,0x4,0x4,0x4,0x4,0x4
	.DB  0x4,0x5,0x4,0x4,0x4,0x4,0x4,0x4
	.DB  0x3,0x4,0x4,0x5,0x5,0x5,0x4,0x4
	.DB  0x4,0x4,0x4,0x4,0x4,0x4,0x4,0x4
	.DB  0x4,0x4,0x4,0x4,0x4,0x4,0x4,0x4
	.DB  0x4,0x4,0x4,0x4,0x4,0x4,0x4,0x4
	.DB  0x4,0x4,0x4,0x4,0x4,0x4,0x4,0x4
	.DB  0x4,0x4,0x4,0x4,0x0,0x0,0x0,0x0
	.DB  0x0,0x0,0x0,0x0,0x0,0x0,0x0,0x0
	.DB  0x0,0x0,0x0,0x0,0x0,0x0,0x0,0x0
	.DB  0x0,0x0,0x0,0x0,0x0,0x0,0x0,0x0
	.DB  0x0,0x0,0x0,0x0,0x0,0x0,0x0,0x0
	.DB  0x0,0x0,0x0,0x0,0x0,0x0,0x0,0x0
	.DB  0x0,0x0,0x0,0x0,0x0,0x0,0x0,0x0
	.DB  0x0,0x0,0x0,0x0,0x0,0x18,0x6,0x1
	.DB  0xE,0x11,0x11,0xE,0x12,0x1F,0x10,0x19
	.DB  0x15,0x15,0x12,0x11,0x15,0x15,0xA,0xC
	.DB  0xA,0x1F,0x8,0x17,0x15,0x15,0x9,0xE
	.DB  0x15,0x15,0x8,0x1,0x19,0x5,0x3,0xA
	.DB  0x15,0x15,0xA,0x2,0x15,0x15,0xE,0x0
	.DB  0xA,0x0,0x0,0x10,0xA,0x0,0x4,0xA
	.DB  0x11,0x0,0xA,0xA,0xA,0xA,0x0,0x11
	.DB  0xA,0x4,0x0,0x1,0x15,0x2,0x0,0x0
	.DB  0x0,0x0,0x1E,0x5,0x5,0x1E,0x1F,0x15
	.DB  0x15,0xA,0xE,0x11,0x11,0xA,0x1F,0x11
	.DB  0x11,0xE,0x1F,0x15,0x15,0x11,0x1F,0x5
	.DB  0x5,0x1,0xE,0x11,0x19,0xA,0x1F,0x4
	.DB  0x4,0x1F,0x0,0x0,0x1F,0x0,0x8,0x11
	.DB  0xF,0x1,0x1F,0x4,0xA,0x11,0x1F,0x10
	.DB  0x10,0x10,0x1F,0x2,0x4,0x2,0x1F,0x1F
	.DB  0x2,0x4,0x1F,0xE,0x11,0x11,0xE,0x1F
	.DB  0x5,0x5,0x2,0xE,0x11,0x19,0x1E,0x1F
	.DB  0x5,0xD,0x12,0x12,0x15,0x15,0x9,0x1
	.DB  0x1F,0x1,0xF,0x10,0x10,0xF,0x7,0x18
	.DB  0x18,0x7,0x1F,0x8,0x4,0x8,0x1F,0x11
	.DB  0xA,0x4,0xA,0x11,0x1,0x2,0x1C,0x2
	.DB  0x1,0x11,0x19,0x15,0x13,0x0,0x0,0x0
	.DB  0x0,0x0,0x0,0x0,0x0,0x0,0x0,0x0
	.DB  0x0,0x0,0x0,0x0,0x0,0x0,0x0,0x0
	.DB  0x0,0x0,0x0,0x0,0x0,0x0,0x0,0x0
	.DB  0x0,0x0,0x0,0x0,0x0,0x0,0x0,0x0
	.DB  0x0,0x0,0x0,0x0,0x0,0x0,0x0,0x0
	.DB  0x0,0x0,0x0,0x0,0x0,0x0,0x0,0x0
	.DB  0x0,0x0,0x0,0x0,0x0,0x0,0x0,0x0
	.DB  0x0,0x0,0x0,0x0,0x0,0x0,0x0,0x0
	.DB  0x0,0x0,0x0,0x0,0x0,0x0,0x0,0x0
	.DB  0x0,0x0,0x0,0x0,0x0,0x0,0x0,0x0
	.DB  0x0,0x0,0x0,0x0,0x0,0x0,0x0,0x0
	.DB  0x0,0x0,0x0,0x0,0x0,0x0,0x0,0x0
	.DB  0x0,0x0,0x0,0x0,0x0,0x0,0x0,0x0
	.DB  0x0,0x0,0x0,0x0,0x0,0x0,0x0,0x0
	.DB  0x0,0x0,0x0,0x0,0x0,0x0,0x0,0x0
	.DB  0x0,0x0,0x0,0x0,0x0,0x0,0x0,0x0
	.DB  0x0,0x0,0x0,0x0,0x0,0x0,0x0,0x0
	.DB  0x0,0x0,0x0,0x0,0x0,0x0,0x0,0x0
	.DB  0x0
_tbl10_G100:
	.DB  0x10,0x27,0xE8,0x3,0x64,0x0,0xA,0x0
	.DB  0x1,0x0
_tbl16_G100:
	.DB  0x0,0x10,0x0,0x1,0x10,0x0,0x1,0x0
__glcd_mask:
	.DB  0x0,0x1,0x3,0x7,0xF,0x1F,0x3F,0x7F
	.DB  0xFF

;GLOBAL REGISTER VARIABLES INITIALIZATION
__REG_VARS:
	.DB  0xA4,0xB1

_0x0:
	.DB  0x48,0x45,0x41,0x4C,0x54,0x48,0x20,0x43
	.DB  0x41,0x52,0x45,0x0,0x54,0x48,0x50,0x54
	.DB  0x20,0x59,0x45,0x4E,0x20,0x48,0x4F,0x41
	.DB  0x0,0x52,0x4F,0x4F,0x4D,0x3A,0x0,0x34
	.DB  0x0,0x52,0x4F,0x42,0x4F,0x54,0x0,0x43
	.DB  0x4F,0x4D,0x45,0x0
_0x2080060:
	.DB  0x1
_0x2080000:
	.DB  0x2D,0x4E,0x41,0x4E,0x0,0x49,0x4E,0x46
	.DB  0x0

__GLOBAL_INI_TBL:
	.DW  0x02
	.DW  0x04
	.DW  __REG_VARS*2

	.DW  0x0C
	.DW  _0xA8
	.DW  _0x0*2

	.DW  0x0D
	.DW  _0xA8+12
	.DW  _0x0*2+12

	.DW  0x06
	.DW  _0xA8+25
	.DW  _0x0*2+25

	.DW  0x02
	.DW  _0xA8+31
	.DW  _0x0*2+31

	.DW  0x0C
	.DW  _0xA9
	.DW  _0x0*2

	.DW  0x0D
	.DW  _0xA9+12
	.DW  _0x0*2+12

	.DW  0x06
	.DW  _0xA9+25
	.DW  _0x0*2+33

	.DW  0x05
	.DW  _0xA9+31
	.DW  _0x0*2+39

	.DW  0x01
	.DW  __seed_G104
	.DW  _0x2080060*2

_0xFFFFFFFF:
	.DW  0

#define __GLOBAL_INI_TBL_PRESENT 1

__RESET:
	CLI
	CLR  R30
	OUT  EECR,R30

;INTERRUPT VECTORS ARE PLACED
;AT THE START OF FLASH
	LDI  R31,1
	OUT  MCUCR,R31
	OUT  MCUCR,R30

;CLEAR R2-R14
	LDI  R24,(14-2)+1
	LDI  R26,2
	CLR  R27
__CLEAR_REG:
	ST   X+,R30
	DEC  R24
	BRNE __CLEAR_REG

;CLEAR SRAM
	LDI  R24,LOW(__CLEAR_SRAM_SIZE)
	LDI  R25,HIGH(__CLEAR_SRAM_SIZE)
	LDI  R26,__SRAM_START
__CLEAR_SRAM:
	ST   X+,R30
	SBIW R24,1
	BRNE __CLEAR_SRAM

;GLOBAL VARIABLES INITIALIZATION
	LDI  R30,LOW(__GLOBAL_INI_TBL*2)
	LDI  R31,HIGH(__GLOBAL_INI_TBL*2)
__GLOBAL_INI_NEXT:
	LPM  R24,Z+
	LPM  R25,Z+
	SBIW R24,0
	BREQ __GLOBAL_INI_END
	LPM  R26,Z+
	LPM  R27,Z+
	LPM  R0,Z+
	LPM  R1,Z+
	MOVW R22,R30
	MOVW R30,R0
__GLOBAL_INI_LOOP:
	LPM  R0,Z+
	ST   X+,R0
	SBIW R24,1
	BRNE __GLOBAL_INI_LOOP
	MOVW R30,R22
	RJMP __GLOBAL_INI_NEXT
__GLOBAL_INI_END:

;HARDWARE STACK POINTER INITIALIZATION
	LDI  R30,LOW(__SRAM_END-__HEAP_SIZE)
	OUT  SPL,R30
	LDI  R30,HIGH(__SRAM_END-__HEAP_SIZE)
	OUT  SPH,R30

;DATA STACK POINTER INITIALIZATION
	LDI  R28,LOW(__SRAM_START+__DSTACK_SIZE)
	LDI  R29,HIGH(__SRAM_START+__DSTACK_SIZE)

	JMP  _main

	.ESEG
	.ORG 0

	.DSEG
	.ORG 0x260

	.CSEG
;#define CE          PORTD.7
;#define CSN         PORTD.6
;#define SCK         PORTD.5
;#define MOSI        PORTD.4
;#define MISO        PIND.3
;#define IRQ         PIND.2
;//------------------------
;#define LED         PORTB.4
;#define button      PIND.0
;unsigned char P_Add=0xB1, Code_tay_cam1 = 0xA4, Code_tay_cam2, Code_tay_cam3, Code_tay_cam4;
;#include <io.h>
	#ifndef __SLEEP_DEFINED__
	#define __SLEEP_DEFINED__
	.EQU __se_bit=0x80
	.EQU __sm_mask=0x70
	.EQU __sm_powerdown=0x20
	.EQU __sm_powersave=0x30
	.EQU __sm_standby=0x60
	.EQU __sm_ext_standby=0x70
	.EQU __sm_adc_noise_red=0x10
	.SET power_ctrl_reg=mcucr
	#endif
;#include <stdio.h>
;#include <delay.h>
;#include <glcd.h>
;#include <glcd_types.h>
;#include "light_10.c"
;/****************************************************************************
;Image data created by the LCD Vision V1.05 font & image editor/converter
;(C) Copyright 2011-2013 Pavel Haiduc, HP InfoTech s.r.l.
;http://www.hpinfotech.com
;
;Graphic LCD controller: PCD8544 (Nokia 3310, 5110) 84x48
;Image width: 84 pixels
;Image height: 48 pixels
;Color depth: 1 bits/pixel
;Imported image file name: light_10
;
;Exported monochrome image data size:
;532 bytes for displays organized as horizontal rows of bytes
;508 bytes for displays organized as rows of vertical bytes.
;****************************************************************************/
;
;flash unsigned char light_10[]=
;{
;/* Image width: 84 pixels */
;0x54, 0x00,
;/* Image height: 48 pixels */
;0x30, 0x00,
;#ifndef _GLCD_DATA_BYTEY_
;/* Image data for monochrome displays organized
;   as horizontal rows of bytes */
;0xFF, 0xFF, 0xFF, 0xFF, 0xFF, 0xFF, 0xFF, 0xFF,
;0xFF, 0xFF, 0x0F, 0x01, 0x00, 0x00, 0x00, 0x00,
;0x00, 0x00, 0x00, 0x00, 0x00, 0x08, 0x01, 0x00,
;0x00, 0x00, 0x00, 0x00, 0x00, 0x00, 0x00, 0x00,
;0x08, 0x01, 0x00, 0x00, 0x00, 0x00, 0x00, 0x00,
;0x00, 0x00, 0x00, 0x08, 0x01, 0x00, 0x00, 0x00,
;0x00, 0x00, 0x00, 0x00, 0x00, 0x00, 0x08, 0x19,
;0x8C, 0x67, 0xF6, 0xC3, 0xE7, 0x9B, 0x79, 0xF6,
;0x9B, 0x09, 0x19, 0xCC, 0x6C, 0xC6, 0xC0, 0x6C,
;0x98, 0xCD, 0xC6, 0x98, 0x09, 0x19, 0x6C, 0x60,
;0xC6, 0xC0, 0x6C, 0xB8, 0x0D, 0xC6, 0x90, 0x08,
;0x19, 0x6C, 0xE0, 0xC7, 0xC0, 0xEC, 0xBB, 0x3D,
;0xC6, 0xF0, 0x08, 0x19, 0x6C, 0x6E, 0xC6, 0xC0,
;0x6C, 0xD8, 0xF1, 0xC6, 0x60, 0x08, 0x19, 0x6C,
;0x6C, 0xC6, 0xC0, 0x6C, 0xD8, 0xC1, 0xC6, 0x60,
;0x08, 0x19, 0xCC, 0x6C, 0xC6, 0xC0, 0x6C, 0x98,
;0xCD, 0xC6, 0x60, 0x08, 0xF9, 0x8D, 0x67, 0xC6,
;0xC0, 0xE7, 0x9B, 0x79, 0xC6, 0x60, 0x08, 0x01,
;0x00, 0x00, 0x00, 0x00, 0x00, 0x00, 0x00, 0x00,
;0x00, 0x08, 0x01, 0x00, 0x00, 0x00, 0x00, 0x00,
;0x00, 0x00, 0x00, 0x00, 0x08, 0x01, 0x00, 0x00,
;0x00, 0x00, 0x00, 0x00, 0x00, 0x00, 0x00, 0x08,
;0x01, 0x00, 0x00, 0x00, 0x00, 0x00, 0x00, 0x00,
;0x00, 0x00, 0x08, 0x01, 0x00, 0x00, 0x00, 0x00,
;0x00, 0x00, 0x00, 0x00, 0x00, 0x08, 0x01, 0x00,
;0x00, 0x00, 0x00, 0x00, 0x00, 0x00, 0x00, 0x00,
;0x08, 0x01, 0x00, 0x00, 0x00, 0x00, 0x00, 0x00,
;0x00, 0x00, 0x00, 0x08, 0x01, 0x00, 0x00, 0x00,
;0xC6, 0x00, 0x00, 0x00, 0x40, 0x00, 0x08, 0x01,
;0x00, 0x00, 0x00, 0x6F, 0x00, 0x00, 0x00, 0x40,
;0x00, 0x08, 0x01, 0x00, 0x00, 0x00, 0x6F, 0x00,
;0x00, 0x80, 0x00, 0x00, 0x08, 0x01, 0x00, 0x00,
;0x00, 0x36, 0x00, 0x00, 0x00, 0xF9, 0x41, 0x08,
;0x01, 0x00, 0x00, 0x00, 0xD8, 0x00, 0x00, 0x00,
;0xFE, 0x27, 0x08, 0x01, 0x60, 0xC0, 0x0F, 0xEC,
;0x01, 0x00, 0x00, 0xFF, 0x0F, 0x08, 0x01, 0x70,
;0xE0, 0x1F, 0xEC, 0x01, 0x00, 0x80, 0xFF, 0x1F,
;0x08, 0x01, 0x7C, 0xE0, 0x1C, 0xC6, 0x00, 0x00,
;0x80, 0xFF, 0x1F, 0x08, 0x01, 0x7E, 0x70, 0x38,
;0x00, 0x00, 0x00, 0xC0, 0xFF, 0x3F, 0x08, 0x01,
;0x76, 0x70, 0x38, 0x00, 0x00, 0x00, 0x00, 0xFF,
;0x3F, 0x08, 0x01, 0x70, 0x70, 0x38, 0x00, 0x00,
;0x00, 0x00, 0xFC, 0x3F, 0x08, 0x01, 0x70, 0x70,
;0x38, 0x00, 0x00, 0x70, 0xC0, 0xF3, 0x3F, 0x08,
;0x01, 0x70, 0x70, 0x38, 0x00, 0x00, 0xFC, 0x20,
;0xE4, 0x1F, 0x08, 0x01, 0x70, 0x70, 0x38, 0x00,
;0x00, 0xDE, 0x11, 0xC8, 0x1F, 0x08, 0x01, 0x70,
;0x70, 0x38, 0x00, 0x00, 0x83, 0x0B, 0x80, 0x4F,
;0x08, 0x01, 0x70, 0x70, 0x38, 0x00, 0x80, 0x07,
;0x07, 0x00, 0x87, 0x08, 0x01, 0x70, 0xE0, 0x1C,
;0x00, 0xC0, 0x0F, 0x0E, 0x00, 0x00, 0x08, 0x01,
;0x70, 0xE0, 0x1F, 0x00, 0xE0, 0x0C, 0x1C, 0xF0,
;0x00, 0x08, 0x01, 0x70, 0xC0, 0x0F, 0x00, 0xE0,
;0x00, 0x38, 0x08, 0x01, 0x08, 0x01, 0x00, 0x00,
;0x00, 0x00, 0xE0, 0x00, 0x30, 0x00, 0x02, 0x08,
;0x01, 0x00, 0x00, 0x00, 0x00, 0xE0, 0x01, 0x00,
;0x00, 0x02, 0x08, 0x01, 0x00, 0x00, 0x00, 0x00,
;0xC0, 0x03, 0x00, 0x00, 0x02, 0x08, 0x01, 0x00,
;0x00, 0x00, 0x00, 0x80, 0x0F, 0x00, 0x00, 0x01,
;0x08, 0x01, 0x00, 0x00, 0x00, 0x00, 0x00, 0xFF,
;0xFF, 0xFF, 0x00, 0x08, 0x01, 0x00, 0x00, 0x00,
;0x00, 0x00, 0x00, 0x00, 0x00, 0x00, 0x08, 0x01,
;0x00, 0x00, 0x00, 0x00, 0x00, 0x00, 0x00, 0x00,
;0x00, 0x08, 0x01, 0x00, 0x00, 0x00, 0x00, 0x00,
;0x00, 0x00, 0x00, 0x00, 0x08, 0xFF, 0xFF, 0xFF,
;0xFF, 0xFF, 0xFF, 0xFF, 0xFF, 0xFF, 0xFF, 0x0F,
;#else
;/* Image data for monochrome displays organized
;   as rows of vertical bytes */
;0xFF, 0x01, 0x01, 0xE1, 0xE1, 0x01, 0x01, 0x01,
;0x01, 0x01, 0xE1, 0xE1, 0x01, 0x81, 0xC1, 0x61,
;0x21, 0x21, 0x61, 0x41, 0x01, 0xE1, 0xE1, 0x01,
;0x01, 0xE1, 0xE1, 0x01, 0x21, 0x21, 0xE1, 0xE1,
;0x21, 0x21, 0x01, 0x01, 0x01, 0x01, 0xE1, 0xE1,
;0x21, 0x21, 0xE1, 0xC1, 0x01, 0xE1, 0xE1, 0x21,
;0x21, 0x21, 0x01, 0xE1, 0xE1, 0x81, 0x01, 0xE1,
;0xE1, 0x01, 0xC1, 0xE1, 0x21, 0x21, 0x61, 0x41,
;0x01, 0xE1, 0xE1, 0x01, 0x21, 0x21, 0xE1, 0xE1,
;0x21, 0x21, 0x01, 0x61, 0xE1, 0x01, 0x01, 0xE1,
;0x61, 0x01, 0x01, 0xFF, 0xFF, 0x00, 0x00, 0x1F,
;0x1F, 0x10, 0x10, 0x10, 0x10, 0x00, 0x1F, 0x1F,
;0x00, 0x07, 0x0F, 0x18, 0x10, 0x12, 0x1E, 0x0E,
;0x00, 0x1F, 0x1F, 0x01, 0x01, 0x1F, 0x1F, 0x00,
;0x00, 0x00, 0x1F, 0x1F, 0x00, 0x00, 0x00, 0x00,
;0x00, 0x00, 0x1F, 0x1F, 0x10, 0x10, 0x1F, 0x0F,
;0x00, 0x1F, 0x1F, 0x11, 0x11, 0x11, 0x00, 0x1F,
;0x1F, 0x01, 0x06, 0x1F, 0x1F, 0x00, 0x09, 0x19,
;0x13, 0x13, 0x1E, 0x0E, 0x00, 0x1F, 0x1F, 0x00,
;0x00, 0x00, 0x1F, 0x1F, 0x00, 0x00, 0x00, 0x00,
;0x01, 0x1F, 0x1F, 0x01, 0x00, 0x00, 0x00, 0xFF,
;0xFF, 0x00, 0x00, 0x00, 0x00, 0x00, 0x00, 0x00,
;0x00, 0x00, 0x00, 0x00, 0x00, 0x00, 0x00, 0x00,
;0x00, 0x00, 0x00, 0x00, 0x00, 0x00, 0x00, 0x00,
;0x00, 0x00, 0x00, 0x00, 0x00, 0x00, 0x00, 0x00,
;0x60, 0xF0, 0xF0, 0x60, 0x80, 0xE0, 0x70, 0x10,
;0x00, 0x00, 0x00, 0x00, 0x00, 0x00, 0x00, 0x00,
;0x00, 0x00, 0x00, 0x00, 0x00, 0x00, 0x00, 0x00,
;0x00, 0x00, 0x00, 0x00, 0x00, 0x00, 0x00, 0x40,
;0x80, 0x00, 0x00, 0x80, 0x80, 0x80, 0xB0, 0x80,
;0x80, 0x00, 0x00, 0x00, 0x00, 0x00, 0x80, 0x00,
;0x00, 0x00, 0x00, 0xFF, 0xFF, 0x00, 0x00, 0x00,
;0x00, 0x00, 0x00, 0x00, 0x00, 0x30, 0x38, 0x18,
;0xFC, 0xFE, 0xFE, 0x00, 0x00, 0x00, 0x00, 0x00,
;0xF0, 0xFC, 0xFE, 0x0E, 0x06, 0x06, 0x0E, 0xFE,
;0xFC, 0xF0, 0x00, 0x00, 0x00, 0x08, 0x0E, 0x07,
;0x01, 0x06, 0x0F, 0x0F, 0x06, 0x00, 0x00, 0x00,
;0x00, 0x00, 0x00, 0x00, 0x00, 0x00, 0x00, 0x00,
;0x80, 0x80, 0x80, 0x00, 0x00, 0x00, 0x00, 0x00,
;0x00, 0x00, 0x90, 0x9C, 0xBE, 0xBF, 0x7F, 0x7F,
;0xFF, 0xFF, 0xFF, 0xFF, 0xFF, 0xFF, 0xFF, 0xFE,
;0xFC, 0xF1, 0x00, 0x00, 0x00, 0x00, 0x00, 0xFF,
;0xFF, 0x00, 0x00, 0x00, 0x00, 0x00, 0x00, 0x00,
;0x00, 0x00, 0x00, 0x00, 0x7F, 0x7F, 0x7F, 0x00,
;0x00, 0x00, 0x00, 0x00, 0x0F, 0x3F, 0x7F, 0x70,
;0x60, 0x60, 0x70, 0x7F, 0x3F, 0x0F, 0x00, 0x00,
;0x00, 0x00, 0x00, 0x00, 0x00, 0x00, 0x00, 0x00,
;0x00, 0x00, 0x00, 0x00, 0x00, 0xE0, 0xF0, 0xF8,
;0x1C, 0x1E, 0x3B, 0x33, 0x03, 0x01, 0x03, 0x07,
;0x0E, 0x1C, 0x38, 0x74, 0xE2, 0xC1, 0x00, 0x00,
;0x00, 0x00, 0x01, 0x42, 0x20, 0x21, 0x23, 0x27,
;0x4F, 0x8F, 0x0F, 0x07, 0x03, 0x00, 0x04, 0x08,
;0x00, 0x00, 0x00, 0xFF, 0xFF, 0x80, 0x80, 0x80,
;0x80, 0x80, 0x80, 0x80, 0x80, 0x80, 0x80, 0x80,
;0x80, 0x80, 0x80, 0x80, 0x80, 0x80, 0x80, 0x80,
;0x80, 0x80, 0x80, 0x80, 0x80, 0x80, 0x80, 0x80,
;0x80, 0x80, 0x80, 0x80, 0x80, 0x80, 0x80, 0x80,
;0x80, 0x80, 0x80, 0x80, 0x80, 0x80, 0x80, 0x80,
;0x80, 0x81, 0x83, 0x87, 0x8F, 0x8E, 0x8C, 0x8C,
;0x88, 0x88, 0x88, 0x88, 0x88, 0x88, 0x88, 0x88,
;0x88, 0x88, 0x88, 0x88, 0x88, 0x88, 0x88, 0x88,
;0x88, 0x88, 0x88, 0x88, 0x84, 0x83, 0x80, 0x80,
;0x80, 0x80, 0x80, 0x80, 0x80, 0x80, 0x80, 0xFF,
;#endif
;};
;
;#include "light_50.c"
;/****************************************************************************
;Image data created by the LCD Vision V1.05 font & image editor/converter
;(C) Copyright 2011-2013 Pavel Haiduc, HP InfoTech s.r.l.
;http://www.hpinfotech.com
;
;Graphic LCD controller: PCD8544 (Nokia 3310, 5110) 84x48
;Image width: 84 pixels
;Image height: 48 pixels
;Color depth: 1 bits/pixel
;Imported image file name: light_10
;
;Exported monochrome image data size:
;532 bytes for displays organized as horizontal rows of bytes
;508 bytes for displays organized as rows of vertical bytes.
;****************************************************************************/
;
;flash unsigned char light_50[]=
;{
;/* Image width: 84 pixels */
;0x54, 0x00,
;/* Image height: 48 pixels */
;0x30, 0x00,
;#ifndef _GLCD_DATA_BYTEY_
;/* Image data for monochrome displays organized
;   as horizontal rows of bytes */
;0xFF, 0xFF, 0xFF, 0xFF, 0xFF, 0xFF, 0xFF, 0xFF,
;0xFF, 0xFF, 0x0F, 0x01, 0x00, 0x00, 0x00, 0x00,
;0x00, 0x00, 0x00, 0x00, 0x00, 0x08, 0x01, 0x00,
;0x00, 0x00, 0x00, 0x00, 0x00, 0x00, 0x00, 0x00,
;0x08, 0x01, 0x00, 0x00, 0x00, 0x00, 0x00, 0x00,
;0x00, 0x00, 0x00, 0x08, 0x01, 0x00, 0x00, 0x00,
;0x00, 0x00, 0x00, 0x00, 0x00, 0x00, 0x08, 0x19,
;0x8C, 0x67, 0xF6, 0xC3, 0xE7, 0x9B, 0x79, 0xF6,
;0x9B, 0x09, 0x19, 0xCC, 0x6C, 0xC6, 0xC0, 0x6C,
;0x98, 0xCD, 0xC6, 0x98, 0x09, 0x19, 0x6C, 0x60,
;0xC6, 0xC0, 0x6C, 0xB8, 0x0D, 0xC6, 0x90, 0x08,
;0x19, 0x6C, 0xE0, 0xC7, 0xC0, 0xEC, 0xBB, 0x3D,
;0xC6, 0xF0, 0x08, 0x19, 0x6C, 0x6E, 0xC6, 0xC0,
;0x6C, 0xD8, 0xF1, 0xC6, 0x60, 0x08, 0x19, 0x6C,
;0x6C, 0xC6, 0xC0, 0x6C, 0xD8, 0xC1, 0xC6, 0x60,
;0x08, 0x19, 0xCC, 0x6C, 0xC6, 0xC0, 0x6C, 0x98,
;0xCD, 0xC6, 0x60, 0x08, 0xF9, 0x8D, 0x67, 0xC6,
;0xC0, 0xE7, 0x9B, 0x79, 0xC6, 0x60, 0x08, 0x01,
;0x00, 0x00, 0x00, 0x00, 0x00, 0x00, 0x00, 0x00,
;0x00, 0x08, 0x01, 0x00, 0x00, 0x00, 0x00, 0x00,
;0x00, 0x00, 0x00, 0x00, 0x08, 0x01, 0x00, 0x00,
;0x00, 0x00, 0x00, 0x00, 0x00, 0x00, 0x00, 0x08,
;0x01, 0x00, 0x00, 0x00, 0x00, 0x00, 0x00, 0x00,
;0x00, 0x00, 0x08, 0x01, 0x00, 0x00, 0x00, 0x00,
;0x00, 0x00, 0x00, 0x00, 0x00, 0x08, 0x01, 0x00,
;0x00, 0x00, 0x00, 0x00, 0x00, 0x00, 0x00, 0x00,
;0x08, 0x01, 0x00, 0x00, 0x00, 0x00, 0x00, 0x00,
;0x00, 0x00, 0x00, 0x08, 0x01, 0x00, 0x00, 0x00,
;0xC6, 0x00, 0x00, 0x00, 0x40, 0x00, 0x08, 0x01,
;0x00, 0x00, 0x00, 0x6F, 0x00, 0x00, 0x00, 0x40,
;0x00, 0x08, 0x01, 0x00, 0x00, 0x00, 0x6F, 0x00,
;0x00, 0x80, 0x00, 0x00, 0x08, 0x01, 0x00, 0x00,
;0x00, 0x36, 0x00, 0x00, 0x00, 0xF9, 0x41, 0x08,
;0x01, 0x00, 0x00, 0x00, 0xD8, 0x00, 0x00, 0x00,
;0xFE, 0x27, 0x08, 0x01, 0xFF, 0xC1, 0x0F, 0xEC,
;0x01, 0x00, 0x00, 0xFF, 0x0F, 0x08, 0x01, 0xFF,
;0xE1, 0x1F, 0xEC, 0x01, 0x00, 0x80, 0xFF, 0x1F,
;0x08, 0x01, 0x07, 0xE0, 0x1C, 0xC6, 0x00, 0x00,
;0x80, 0x9F, 0x1F, 0x08, 0x01, 0x07, 0x70, 0x38,
;0x00, 0x00, 0x00, 0xC0, 0x07, 0x3E, 0x08, 0x81,
;0x7F, 0x70, 0x38, 0x00, 0x00, 0x00, 0x00, 0x07,
;0x3E, 0x08, 0x81, 0xFF, 0x70, 0x38, 0x00, 0x00,
;0x00, 0x00, 0x00, 0x3C, 0x08, 0x81, 0xE7, 0x71,
;0x38, 0x00, 0x00, 0x70, 0xC0, 0x03, 0x3C, 0x08,
;0x01, 0xC0, 0x71, 0x38, 0x00, 0x00, 0xFC, 0xE0,
;0x07, 0x1E, 0x08, 0x01, 0xC0, 0x71, 0x38, 0x00,
;0x00, 0xDE, 0x71, 0x0E, 0x1F, 0x08, 0x01, 0xC0,
;0x71, 0x38, 0x00, 0x00, 0x87, 0x3B, 0x8C, 0x4F,
;0x08, 0x81, 0xC3, 0x71, 0x38, 0x00, 0x80, 0x07,
;0x1F, 0x00, 0x87, 0x08, 0x81, 0xE7, 0xE0, 0x1C,
;0x00, 0xC0, 0x0F, 0x0E, 0x00, 0x00, 0x08, 0x01,
;0xFF, 0xE0, 0x1F, 0x00, 0xE0, 0x0C, 0x1C, 0xF0,
;0x00, 0x08, 0x01, 0x3E, 0xC0, 0x0F, 0x00, 0xE0,
;0x00, 0x38, 0xF8, 0x01, 0x08, 0x01, 0x00, 0x00,
;0x00, 0x00, 0xE0, 0x00, 0x30, 0x90, 0x03, 0x08,
;0x01, 0x00, 0x00, 0x00, 0x00, 0xE0, 0x01, 0x00,
;0x00, 0x03, 0x08, 0x01, 0x00, 0x00, 0x00, 0x00,
;0xC0, 0x03, 0x00, 0x80, 0x03, 0x08, 0x01, 0x00,
;0x00, 0x00, 0x00, 0x80, 0xFF, 0xFF, 0xFF, 0x01,
;0x08, 0x01, 0x00, 0x00, 0x00, 0x00, 0x00, 0xFF,
;0xFF, 0xFF, 0x00, 0x08, 0x01, 0x00, 0x00, 0x00,
;0x00, 0x00, 0x00, 0x00, 0x00, 0x00, 0x08, 0x01,
;0x00, 0x00, 0x00, 0x00, 0x00, 0x00, 0x00, 0x00,
;0x00, 0x08, 0x01, 0x00, 0x00, 0x00, 0x00, 0x00,
;0x00, 0x00, 0x00, 0x00, 0x08, 0xFF, 0xFF, 0xFF,
;0xFF, 0xFF, 0xFF, 0xFF, 0xFF, 0xFF, 0xFF, 0x0F,
;#else
;/* Image data for monochrome displays organized
;   as rows of vertical bytes */
;0xFF, 0x01, 0x01, 0xE1, 0xE1, 0x01, 0x01, 0x01,
;0x01, 0x01, 0xE1, 0xE1, 0x01, 0x81, 0xC1, 0x61,
;0x21, 0x21, 0x61, 0x41, 0x01, 0xE1, 0xE1, 0x01,
;0x01, 0xE1, 0xE1, 0x01, 0x21, 0x21, 0xE1, 0xE1,
;0x21, 0x21, 0x01, 0x01, 0x01, 0x01, 0xE1, 0xE1,
;0x21, 0x21, 0xE1, 0xC1, 0x01, 0xE1, 0xE1, 0x21,
;0x21, 0x21, 0x01, 0xE1, 0xE1, 0x81, 0x01, 0xE1,
;0xE1, 0x01, 0xC1, 0xE1, 0x21, 0x21, 0x61, 0x41,
;0x01, 0xE1, 0xE1, 0x01, 0x21, 0x21, 0xE1, 0xE1,
;0x21, 0x21, 0x01, 0x61, 0xE1, 0x01, 0x01, 0xE1,
;0x61, 0x01, 0x01, 0xFF, 0xFF, 0x00, 0x00, 0x1F,
;0x1F, 0x10, 0x10, 0x10, 0x10, 0x00, 0x1F, 0x1F,
;0x00, 0x07, 0x0F, 0x18, 0x10, 0x12, 0x1E, 0x0E,
;0x00, 0x1F, 0x1F, 0x01, 0x01, 0x1F, 0x1F, 0x00,
;0x00, 0x00, 0x1F, 0x1F, 0x00, 0x00, 0x00, 0x00,
;0x00, 0x00, 0x1F, 0x1F, 0x10, 0x10, 0x1F, 0x0F,
;0x00, 0x1F, 0x1F, 0x11, 0x11, 0x11, 0x00, 0x1F,
;0x1F, 0x01, 0x06, 0x1F, 0x1F, 0x00, 0x09, 0x19,
;0x13, 0x13, 0x1E, 0x0E, 0x00, 0x1F, 0x1F, 0x00,
;0x00, 0x00, 0x1F, 0x1F, 0x00, 0x00, 0x00, 0x00,
;0x01, 0x1F, 0x1F, 0x01, 0x00, 0x00, 0x00, 0xFF,
;0xFF, 0x00, 0x00, 0x00, 0x00, 0x00, 0x00, 0x00,
;0x00, 0x00, 0x00, 0x00, 0x00, 0x00, 0x00, 0x00,
;0x00, 0x00, 0x00, 0x00, 0x00, 0x00, 0x00, 0x00,
;0x00, 0x00, 0x00, 0x00, 0x00, 0x00, 0x00, 0x00,
;0x60, 0xF0, 0xF0, 0x60, 0x80, 0xE0, 0x70, 0x10,
;0x00, 0x00, 0x00, 0x00, 0x00, 0x00, 0x00, 0x00,
;0x00, 0x00, 0x00, 0x00, 0x00, 0x00, 0x00, 0x00,
;0x00, 0x00, 0x00, 0x00, 0x00, 0x00, 0x00, 0x40,
;0x80, 0x00, 0x00, 0x80, 0x80, 0x80, 0xB0, 0x80,
;0x80, 0x00, 0x00, 0x00, 0x00, 0x00, 0x80, 0x00,
;0x00, 0x00, 0x00, 0xFF, 0xFF, 0x00, 0x00, 0x00,
;0x00, 0x00, 0x00, 0xE0, 0xFE, 0xFE, 0xFE, 0x66,
;0x66, 0xE6, 0xE6, 0xC6, 0x86, 0x00, 0x00, 0x00,
;0xF0, 0xFC, 0xFE, 0x0E, 0x06, 0x06, 0x0E, 0xFE,
;0xFC, 0xF0, 0x00, 0x00, 0x00, 0x08, 0x0E, 0x07,
;0x01, 0x06, 0x0F, 0x0F, 0x06, 0x00, 0x00, 0x00,
;0x00, 0x00, 0x00, 0x00, 0x00, 0x00, 0x00, 0x00,
;0x80, 0x80, 0x80, 0x00, 0x00, 0x00, 0x00, 0x00,
;0x00, 0x00, 0x90, 0x9C, 0xBE, 0xBF, 0x3F, 0x0F,
;0x0F, 0x07, 0x07, 0x0F, 0x0F, 0x3F, 0xFF, 0xFE,
;0xFC, 0xF1, 0x00, 0x00, 0x00, 0x00, 0x00, 0xFF,
;0xFF, 0x00, 0x00, 0x00, 0x00, 0x00, 0x00, 0x18,
;0x38, 0x78, 0x70, 0x60, 0x60, 0x70, 0x3F, 0x3F,
;0x0F, 0x00, 0x00, 0x00, 0x0F, 0x3F, 0x7F, 0x70,
;0x60, 0x60, 0x70, 0x7F, 0x3F, 0x0F, 0x00, 0x00,
;0x00, 0x00, 0x00, 0x00, 0x00, 0x00, 0x00, 0x00,
;0x00, 0x00, 0x00, 0x00, 0x00, 0xE0, 0xF0, 0xF8,
;0x1C, 0x1E, 0x3F, 0x33, 0x03, 0x01, 0x03, 0x07,
;0x0E, 0x1C, 0x38, 0x7C, 0xEE, 0xC7, 0x03, 0x01,
;0x01, 0x03, 0x07, 0x46, 0xE0, 0x60, 0x60, 0xE4,
;0xCE, 0x8F, 0x0F, 0x07, 0x03, 0x00, 0x04, 0x08,
;0x00, 0x00, 0x00, 0xFF, 0xFF, 0x80, 0x80, 0x80,
;0x80, 0x80, 0x80, 0x80, 0x80, 0x80, 0x80, 0x80,
;0x80, 0x80, 0x80, 0x80, 0x80, 0x80, 0x80, 0x80,
;0x80, 0x80, 0x80, 0x80, 0x80, 0x80, 0x80, 0x80,
;0x80, 0x80, 0x80, 0x80, 0x80, 0x80, 0x80, 0x80,
;0x80, 0x80, 0x80, 0x80, 0x80, 0x80, 0x80, 0x80,
;0x80, 0x81, 0x83, 0x87, 0x8F, 0x8E, 0x8C, 0x8C,
;0x8C, 0x8C, 0x8C, 0x8C, 0x8C, 0x8C, 0x8C, 0x8C,
;0x8C, 0x8C, 0x8C, 0x8C, 0x8C, 0x8C, 0x8C, 0x8C,
;0x8C, 0x8C, 0x8C, 0x8E, 0x87, 0x83, 0x80, 0x80,
;0x80, 0x80, 0x80, 0x80, 0x80, 0x80, 0x80, 0xFF,
;#endif
;};
;
;#include "light_90.c"
;/****************************************************************************
;Image data created by the LCD Vision V1.05 font & image editor/converter
;(C) Copyright 2011-2013 Pavel Haiduc, HP InfoTech s.r.l.
;http://www.hpinfotech.com
;
;Graphic LCD controller: PCD8544 (Nokia 3310, 5110) 84x48
;Image width: 84 pixels
;Image height: 48 pixels
;Color depth: 1 bits/pixel
;Imported image file name: light_10
;
;Exported monochrome image data size:
;532 bytes for displays organized as horizontal rows of bytes
;508 bytes for displays organized as rows of vertical bytes.
;****************************************************************************/
;
;flash unsigned char light_90[]=
;{
;/* Image width: 84 pixels */
;0x54, 0x00,
;/* Image height: 48 pixels */
;0x30, 0x00,
;#ifndef _GLCD_DATA_BYTEY_
;/* Image data for monochrome displays organized
;   as horizontal rows of bytes */
;0xFF, 0xFF, 0xFF, 0xFF, 0xFF, 0xFF, 0xFF, 0xFF,
;0xFF, 0xFF, 0x0F, 0x01, 0x00, 0x00, 0x00, 0x00,
;0x00, 0x00, 0x00, 0x00, 0x00, 0x08, 0x01, 0x00,
;0x00, 0x00, 0x00, 0x00, 0x00, 0x00, 0x00, 0x00,
;0x08, 0x01, 0x00, 0x00, 0x00, 0x00, 0x00, 0x00,
;0x00, 0x00, 0x00, 0x08, 0x01, 0x00, 0x00, 0x00,
;0x00, 0x00, 0x00, 0x00, 0x00, 0x00, 0x08, 0x19,
;0x8C, 0x67, 0xF6, 0xC3, 0xE7, 0x9B, 0x79, 0xF6,
;0x9B, 0x09, 0x19, 0xCC, 0x6C, 0xC6, 0xC0, 0x6C,
;0x98, 0xCD, 0xC6, 0x98, 0x09, 0x19, 0x6C, 0x60,
;0xC6, 0xC0, 0x6C, 0xB8, 0x0D, 0xC6, 0x90, 0x08,
;0x19, 0x6C, 0xE0, 0xC7, 0xC0, 0xEC, 0xBB, 0x3D,
;0xC6, 0xF0, 0x08, 0x19, 0x6C, 0x6E, 0xC6, 0xC0,
;0x6C, 0xD8, 0xF1, 0xC6, 0x60, 0x08, 0x19, 0x6C,
;0x6C, 0xC6, 0xC0, 0x6C, 0xD8, 0xC1, 0xC6, 0x60,
;0x08, 0x19, 0xCC, 0x6C, 0xC6, 0xC0, 0x6C, 0x98,
;0xCD, 0xC6, 0x60, 0x08, 0xF9, 0x8D, 0x67, 0xC6,
;0xC0, 0xE7, 0x9B, 0x79, 0xC6, 0x60, 0x08, 0x01,
;0x00, 0x00, 0x00, 0x00, 0x00, 0x00, 0x00, 0x00,
;0x00, 0x08, 0x01, 0x00, 0x00, 0x00, 0x00, 0x00,
;0x00, 0x00, 0x00, 0x00, 0x08, 0x01, 0x00, 0x00,
;0x00, 0x00, 0x00, 0x00, 0x00, 0x00, 0x00, 0x08,
;0x01, 0x00, 0x00, 0x00, 0x00, 0x00, 0x00, 0x00,
;0x00, 0x00, 0x08, 0x01, 0x00, 0x00, 0x00, 0x00,
;0x00, 0x00, 0x00, 0x00, 0x00, 0x08, 0x01, 0x00,
;0x00, 0x00, 0x00, 0x00, 0x00, 0x00, 0x40, 0x00,
;0x08, 0x01, 0x00, 0x00, 0x00, 0x00, 0x00, 0x00,
;0x00, 0x40, 0x00, 0x08, 0x01, 0x00, 0x00, 0x00,
;0xC6, 0x00, 0x00, 0x20, 0x40, 0x00, 0x08, 0x01,
;0x00, 0x00, 0x00, 0x6F, 0x00, 0x00, 0x40, 0x44,
;0x00, 0x09, 0x01, 0x00, 0x00, 0x00, 0x6F, 0x00,
;0x00, 0x80, 0x00, 0x84, 0x08, 0x01, 0x00, 0x00,
;0x00, 0x36, 0x00, 0x00, 0x00, 0xF9, 0x41, 0x08,
;0x01, 0x00, 0x00, 0x00, 0xD8, 0x00, 0x00, 0x00,
;0x06, 0x26, 0x08, 0x01, 0x3E, 0xC0, 0x0F, 0xEC,
;0x01, 0x00, 0x00, 0x01, 0x08, 0x08, 0x01, 0xFF,
;0xE0, 0x1F, 0xEC, 0x01, 0x00, 0x80, 0x00, 0x90,
;0x08, 0x81, 0xE7, 0xE0, 0x1C, 0xC6, 0x00, 0x00,
;0x80, 0x00, 0x00, 0x08, 0x81, 0xC3, 0x71, 0x38,
;0x00, 0x00, 0x00, 0x40, 0x00, 0x20, 0x08, 0x81,
;0xC3, 0x71, 0x38, 0x00, 0x00, 0x00, 0x00, 0x00,
;0xA0, 0x0B, 0x81, 0xC3, 0x71, 0x38, 0x00, 0x00,
;0x00, 0x00, 0x00, 0x20, 0x08, 0x81, 0xE7, 0x71,
;0x38, 0x00, 0x00, 0x70, 0xC0, 0x03, 0x20, 0x08,
;0x01, 0xFF, 0x71, 0x38, 0x00, 0x00, 0x8C, 0x20,
;0x04, 0x90, 0x08, 0x01, 0xFE, 0x71, 0x38, 0x00,
;0x00, 0x02, 0x11, 0x08, 0x10, 0x08, 0x01, 0xC0,
;0x71, 0x38, 0x00, 0x00, 0x01, 0x0A, 0x08, 0x48,
;0x08, 0x81, 0xC3, 0x71, 0x38, 0x00, 0x80, 0x01,
;0x04, 0x00, 0x84, 0x08, 0x81, 0xE7, 0xE0, 0x1C,
;0x00, 0x40, 0x02, 0x08, 0x00, 0x00, 0x09, 0x01,
;0x7F, 0xE0, 0x1F, 0x00, 0x20, 0x04, 0x10, 0xF0,
;0x00, 0x0A, 0x01, 0x3E, 0xC0, 0x0F, 0x00, 0x20,
;0x00, 0x10, 0x08, 0x01, 0x08, 0x01, 0x00, 0x00,
;0x00, 0x00, 0x20, 0x00, 0x20, 0x00, 0x02, 0x08,
;0x01, 0x00, 0x00, 0x00, 0x00, 0x20, 0x00, 0x00,
;0x00, 0x02, 0x08, 0x01, 0x00, 0x00, 0x00, 0x00,
;0x40, 0x00, 0x00, 0x00, 0x02, 0x08, 0x01, 0x00,
;0x00, 0x00, 0x00, 0x80, 0x00, 0x00, 0x80, 0x01,
;0x08, 0x01, 0x00, 0x00, 0x00, 0x00, 0x00, 0xFF,
;0xFF, 0xFF, 0x00, 0x08, 0x01, 0x00, 0x00, 0x00,
;0x00, 0x00, 0x00, 0x00, 0x00, 0x00, 0x08, 0x01,
;0x00, 0x00, 0x00, 0x00, 0x00, 0x00, 0x00, 0x00,
;0x00, 0x08, 0x01, 0x00, 0x00, 0x00, 0x00, 0x00,
;0x00, 0x00, 0x00, 0x00, 0x08, 0xFF, 0xFF, 0xFF,
;0xFF, 0xFF, 0xFF, 0xFF, 0xFF, 0xFF, 0xFF, 0x0F,
;#else
;/* Image data for monochrome displays organized
;   as rows of vertical bytes */
;0xFF, 0x01, 0x01, 0xE1, 0xE1, 0x01, 0x01, 0x01,
;0x01, 0x01, 0xE1, 0xE1, 0x01, 0x81, 0xC1, 0x61,
;0x21, 0x21, 0x61, 0x41, 0x01, 0xE1, 0xE1, 0x01,
;0x01, 0xE1, 0xE1, 0x01, 0x21, 0x21, 0xE1, 0xE1,
;0x21, 0x21, 0x01, 0x01, 0x01, 0x01, 0xE1, 0xE1,
;0x21, 0x21, 0xE1, 0xC1, 0x01, 0xE1, 0xE1, 0x21,
;0x21, 0x21, 0x01, 0xE1, 0xE1, 0x81, 0x01, 0xE1,
;0xE1, 0x01, 0xC1, 0xE1, 0x21, 0x21, 0x61, 0x41,
;0x01, 0xE1, 0xE1, 0x01, 0x21, 0x21, 0xE1, 0xE1,
;0x21, 0x21, 0x01, 0x61, 0xE1, 0x01, 0x01, 0xE1,
;0x61, 0x01, 0x01, 0xFF, 0xFF, 0x00, 0x00, 0x1F,
;0x1F, 0x10, 0x10, 0x10, 0x10, 0x00, 0x1F, 0x1F,
;0x00, 0x07, 0x0F, 0x18, 0x10, 0x12, 0x1E, 0x0E,
;0x00, 0x1F, 0x1F, 0x01, 0x01, 0x1F, 0x1F, 0x00,
;0x00, 0x00, 0x1F, 0x1F, 0x00, 0x00, 0x00, 0x00,
;0x00, 0x00, 0x1F, 0x1F, 0x10, 0x10, 0x1F, 0x0F,
;0x00, 0x1F, 0x1F, 0x11, 0x11, 0x11, 0x00, 0x1F,
;0x1F, 0x01, 0x06, 0x1F, 0x1F, 0x00, 0x09, 0x19,
;0x13, 0x13, 0x1E, 0x0E, 0x00, 0x1F, 0x1F, 0x00,
;0x00, 0x00, 0x1F, 0x1F, 0x00, 0x00, 0x00, 0x00,
;0x01, 0x1F, 0x1F, 0x01, 0x00, 0x00, 0x00, 0xFF,
;0xFF, 0x00, 0x00, 0x00, 0x00, 0x00, 0x00, 0x00,
;0x00, 0x00, 0x00, 0x00, 0x00, 0x00, 0x00, 0x00,
;0x00, 0x00, 0x00, 0x00, 0x00, 0x00, 0x00, 0x00,
;0x00, 0x00, 0x00, 0x00, 0x00, 0x00, 0x00, 0x00,
;0x60, 0xF0, 0xF0, 0x60, 0x80, 0xE0, 0x70, 0x10,
;0x00, 0x00, 0x00, 0x00, 0x00, 0x00, 0x00, 0x00,
;0x00, 0x00, 0x00, 0x00, 0x00, 0x00, 0x00, 0x00,
;0x00, 0x00, 0x00, 0x00, 0x00, 0x10, 0x20, 0x40,
;0x80, 0x00, 0x20, 0x80, 0x80, 0x80, 0xBC, 0x80,
;0x80, 0x00, 0x40, 0x00, 0x00, 0x00, 0x80, 0x40,
;0x20, 0x00, 0x00, 0xFF, 0xFF, 0x00, 0x00, 0x00,
;0x00, 0x00, 0x00, 0xF8, 0xFC, 0xFE, 0x8E, 0x06,
;0x06, 0x8E, 0xFC, 0xFC, 0xF0, 0x00, 0x00, 0x00,
;0xF0, 0xFC, 0xFE, 0x0E, 0x06, 0x06, 0x0E, 0xFE,
;0xFC, 0xF0, 0x00, 0x00, 0x00, 0x08, 0x0E, 0x07,
;0x01, 0x06, 0x0F, 0x0F, 0x06, 0x00, 0x00, 0x00,
;0x00, 0x00, 0x00, 0x00, 0x00, 0x00, 0x00, 0x00,
;0x80, 0x80, 0x80, 0x00, 0x00, 0x00, 0x00, 0x00,
;0x00, 0x00, 0x90, 0x8C, 0x82, 0x81, 0x01, 0x00,
;0x00, 0x00, 0x00, 0x00, 0x00, 0x01, 0x01, 0x02,
;0x04, 0xF1, 0x00, 0x24, 0x20, 0x20, 0x00, 0xFF,
;0xFF, 0x00, 0x00, 0x00, 0x00, 0x00, 0x00, 0x18,
;0x39, 0x7B, 0x73, 0x63, 0x63, 0x73, 0x3F, 0x1F,
;0x0F, 0x00, 0x00, 0x00, 0x0F, 0x3F, 0x7F, 0x70,
;0x60, 0x60, 0x70, 0x7F, 0x3F, 0x0F, 0x00, 0x00,
;0x00, 0x00, 0x00, 0x00, 0x00, 0x00, 0x00, 0x00,
;0x00, 0x00, 0x00, 0x00, 0x00, 0xE0, 0x10, 0x08,
;0x0C, 0x12, 0x21, 0x01, 0x00, 0x00, 0x00, 0x01,
;0x02, 0x04, 0x08, 0x14, 0x62, 0x81, 0x00, 0x00,
;0x00, 0x00, 0x01, 0x46, 0x20, 0x20, 0x20, 0x20,
;0x40, 0x80, 0x08, 0x04, 0x03, 0x00, 0x04, 0x09,
;0x10, 0x20, 0x00, 0xFF, 0xFF, 0x80, 0x80, 0x80,
;0x80, 0x80, 0x80, 0x80, 0x80, 0x80, 0x80, 0x80,
;0x80, 0x80, 0x80, 0x80, 0x80, 0x80, 0x80, 0x80,
;0x80, 0x80, 0x80, 0x80, 0x80, 0x80, 0x80, 0x80,
;0x80, 0x80, 0x80, 0x80, 0x80, 0x80, 0x80, 0x80,
;0x80, 0x80, 0x80, 0x80, 0x80, 0x80, 0x80, 0x80,
;0x80, 0x81, 0x82, 0x84, 0x88, 0x88, 0x88, 0x88,
;0x88, 0x88, 0x88, 0x88, 0x88, 0x88, 0x88, 0x88,
;0x88, 0x88, 0x88, 0x88, 0x88, 0x88, 0x88, 0x88,
;0x88, 0x88, 0x88, 0x8C, 0x84, 0x83, 0x80, 0x80,
;0x80, 0x80, 0x80, 0x80, 0x80, 0x80, 0x80, 0xFF,
;#endif
;};
;
;#include "general.c"
;/****************************************************************************
;Image data created by the LCD Vision V1.05 font & image editor/converter
;(C) Copyright 2011-2013 Pavel Haiduc, HP InfoTech s.r.l.
;http://www.hpinfotech.com
;
;Graphic LCD controller: PCD8544 (Nokia 3310, 5110) 84x48
;Image width: 84 pixels
;Image height: 48 pixels
;Color depth: 1 bits/pixel
;Imported image file name: general.bmp
;
;Exported monochrome image data size:
;532 bytes for displays organized as horizontal rows of bytes
;508 bytes for displays organized as rows of vertical bytes.
;****************************************************************************/
;
;flash unsigned char general[]=
;{
;/* Image width: 84 pixels */
;0x54, 0x00,
;/* Image height: 48 pixels */
;0x30, 0x00,
;#ifndef _GLCD_DATA_BYTEY_
;/* Image data for monochrome displays organized
;   as horizontal rows of bytes */
;0xFF, 0xFF, 0xFF, 0xFF, 0xFF, 0xFF, 0xFF, 0xFF,
;0xFF, 0xFF, 0x0F, 0x01, 0x00, 0x00, 0x00, 0x00,
;0x04, 0x00, 0x00, 0x00, 0x00, 0x08, 0x01, 0x00,
;0x00, 0x10, 0x10, 0x04, 0x00, 0x00, 0x00, 0x40,
;0x08, 0x01, 0x00, 0x98, 0x20, 0x08, 0x04, 0x00,
;0x60, 0x02, 0x40, 0x08, 0x01, 0x00, 0x58, 0x20,
;0x08, 0x04, 0x00, 0x60, 0x01, 0x40, 0x08, 0x01,
;0x00, 0x20, 0x40, 0x04, 0x04, 0x00, 0x80, 0x00,
;0xE0, 0x08, 0xE1, 0xF1, 0xD0, 0x02, 0x80, 0x04,
;0x0F, 0x46, 0x03, 0xA0, 0x08, 0xF1, 0xFB, 0xC9,
;0x84, 0x43, 0x84, 0x1F, 0x27, 0x03, 0x10, 0x09,
;0x31, 0x9B, 0x01, 0x48, 0x24, 0x04, 0x98, 0x07,
;0x80, 0x10, 0x09, 0x31, 0x83, 0x01, 0x20, 0x08,
;0x04, 0xD8, 0x06, 0x80, 0x08, 0x0A, 0xF1, 0x83,
;0x01, 0x27, 0xC8, 0x05, 0x1F, 0x06, 0x80, 0x08,
;0x0A, 0xE1, 0xC1, 0x00, 0x20, 0x18, 0x04, 0x0F,
;0x06, 0xC0, 0x09, 0x0B, 0x31, 0x63, 0x00, 0x3C,
;0x78, 0x04, 0x18, 0x06, 0x40, 0x11, 0x09, 0x31,
;0x33, 0x00, 0x66, 0xC4, 0x04, 0x18, 0x06, 0x20,
;0x12, 0x09, 0xF1, 0xFB, 0x01, 0xE3, 0x83, 0x84,
;0x1F, 0x06, 0x20, 0xE2, 0x08, 0xE1, 0xF9, 0x01,
;0x01, 0x80, 0x04, 0x0F, 0x06, 0x10, 0x04, 0x08,
;0x01, 0x00, 0x00, 0x01, 0x80, 0x04, 0x00, 0x00,
;0x10, 0x06, 0x08, 0x01, 0x00, 0x00, 0x01, 0xC3,
;0x04, 0x00, 0x00, 0x10, 0x06, 0x08, 0x01, 0x00,
;0x00, 0xFE, 0x7F, 0x04, 0x00, 0x00, 0x20, 0x02,
;0x08, 0x01, 0x00, 0x00, 0x00, 0x00, 0x04, 0x00,
;0x00, 0x20, 0x02, 0x08, 0x01, 0x00, 0x00, 0x00,
;0x00, 0x04, 0x00, 0x00, 0xC0, 0x01, 0x08, 0x01,
;0x00, 0x00, 0x00, 0x00, 0x04, 0x00, 0x00, 0x00,
;0x00, 0x08, 0x01, 0x00, 0x00, 0x00, 0x00, 0x04,
;0x00, 0x00, 0x00, 0x00, 0x08, 0xFF, 0xFF, 0xFF,
;0xFF, 0xFF, 0xFF, 0xFF, 0xFF, 0xFF, 0xFF, 0x0F,
;0x01, 0x00, 0x00, 0x00, 0x00, 0x04, 0x00, 0x00,
;0x00, 0x00, 0x08, 0x01, 0x00, 0x00, 0x00, 0x00,
;0x04, 0x00, 0x00, 0x80, 0x00, 0x08, 0x01, 0x00,
;0x00, 0x00, 0x06, 0x04, 0x00, 0x00, 0x80, 0x00,
;0x08, 0x01, 0x00, 0x00, 0x00, 0x09, 0x04, 0x00,
;0x00, 0x80, 0x00, 0x08, 0x01, 0x00, 0x00, 0x00,
;0x09, 0x04, 0x00, 0x00, 0xC0, 0x01, 0x08, 0x01,
;0x00, 0x8C, 0x01, 0x09, 0x04, 0x00, 0x00, 0x40,
;0x01, 0x08, 0x01, 0x00, 0x52, 0x00, 0x09, 0x04,
;0x00, 0x00, 0x20, 0x02, 0x08, 0x81, 0x79, 0x52,
;0x00, 0x09, 0x04, 0x06, 0x00, 0x20, 0x02, 0x08,
;0xC1, 0xFD, 0x9C, 0x01, 0x09, 0x04, 0x06, 0x00,
;0x10, 0x04, 0x08, 0xE1, 0xCD, 0x00, 0x00, 0x09,
;0x04, 0x0E, 0x00, 0x10, 0x04, 0x08, 0xB1, 0x0D,
;0x00, 0x00, 0x09, 0x04, 0x0E, 0x00, 0x10, 0x04,
;0x08, 0x81, 0x7D, 0x00, 0x00, 0x09, 0x04, 0x0E,
;0x00, 0x20, 0x02, 0x08, 0x81, 0xFD, 0x00, 0x00,
;0x0F, 0x04, 0x0E, 0x00, 0x20, 0x02, 0x08, 0x81,
;0xCD, 0x00, 0x00, 0x0F, 0x04, 0x0E, 0x00, 0xC0,
;0x01, 0x08, 0x81, 0xCD, 0x00, 0x00, 0x0F, 0x04,
;0x0E, 0x00, 0x00, 0x00, 0x08, 0x81, 0xFD, 0x00,
;0x80, 0x1F, 0x04, 0x7E, 0x00, 0xFE, 0xFF, 0x08,
;0x81, 0x79, 0x00, 0xC0, 0x3F, 0x04, 0x7E, 0x00,
;0x21, 0x80, 0x08, 0x01, 0x00, 0x00, 0xC0, 0x3F,
;0x04, 0x00, 0x80, 0x04, 0x53, 0x08, 0x01, 0x00,
;0x00, 0xC0, 0x3F, 0x04, 0x00, 0x40, 0x69, 0x2B,
;0x08, 0x01, 0x00, 0x00, 0x80, 0x1F, 0x04, 0x00,
;0xA0, 0x0C, 0x11, 0x08, 0x01, 0x00, 0x00, 0x00,
;0x0F, 0x04, 0x00, 0xF0, 0xFF, 0x0F, 0x08, 0x01,
;0x00, 0x00, 0x00, 0x00, 0x04, 0x00, 0x00, 0x00,
;0x00, 0x08, 0x01, 0x00, 0x00, 0x00, 0x00, 0x04,
;0x00, 0x00, 0x00, 0x00, 0x08, 0xFF, 0xFF, 0xFF,
;0xFF, 0xFF, 0xFF, 0xFF, 0xFF, 0xFF, 0xFF, 0x0F,
;#else
;/* Image data for monochrome displays organized
;   as rows of vertical bytes */
;0xFF, 0x01, 0x01, 0x01, 0x81, 0xC1, 0xC1, 0xC1,
;0xC1, 0x81, 0x01, 0x81, 0xC1, 0xC1, 0xC1, 0xC1,
;0x81, 0x01, 0x01, 0x99, 0x59, 0x21, 0xD1, 0xC9,
;0x01, 0x41, 0x81, 0x01, 0x05, 0x19, 0x21, 0x81,
;0x81, 0x81, 0x21, 0x19, 0x05, 0x01, 0x81, 0x41,
;0x01, 0x01, 0xFF, 0x01, 0x01, 0x01, 0x01, 0x81,
;0xC1, 0xC1, 0xC1, 0xC1, 0x81, 0x01, 0x01, 0x01,
;0x81, 0xC1, 0xC1, 0x01, 0x01, 0x99, 0x59, 0x21,
;0xD1, 0xC9, 0x01, 0x01, 0x01, 0x01, 0x01, 0x01,
;0x01, 0x01, 0x01, 0x01, 0x81, 0x61, 0x3D, 0x61,
;0x81, 0x01, 0x01, 0xFF, 0xFF, 0x00, 0x00, 0x00,
;0x77, 0xFF, 0xCC, 0xCC, 0xFF, 0x77, 0x00, 0xC1,
;0xE1, 0xF0, 0xD8, 0xCF, 0xC7, 0x00, 0x00, 0x00,
;0x00, 0x00, 0x00, 0x00, 0xC4, 0x64, 0x34, 0x11,
;0x10, 0x7E, 0x61, 0x40, 0x40, 0x40, 0x21, 0x1E,
;0x18, 0x11, 0x34, 0xE4, 0x04, 0x00, 0xFF, 0x00,
;0x00, 0x00, 0x00, 0x40, 0xCC, 0xCC, 0xCC, 0xFF,
;0x77, 0x00, 0x02, 0x03, 0x01, 0xFF, 0xFF, 0x00,
;0x00, 0x00, 0x00, 0x00, 0x00, 0x00, 0x00, 0x00,
;0x80, 0x60, 0x18, 0x0F, 0x18, 0x60, 0x80, 0x0E,
;0x31, 0x40, 0x40, 0x40, 0x39, 0x0E, 0x00, 0xFF,
;0xFF, 0x80, 0x80, 0x80, 0x80, 0x80, 0x80, 0x80,
;0x80, 0x80, 0x80, 0x80, 0x80, 0x80, 0x80, 0x80,
;0x80, 0x80, 0x80, 0x80, 0x80, 0x80, 0x80, 0x80,
;0x83, 0x84, 0x84, 0x84, 0x84, 0x84, 0x84, 0x84,
;0x86, 0x86, 0x84, 0x84, 0x84, 0x84, 0x86, 0x83,
;0x80, 0x80, 0xFF, 0x80, 0x80, 0x80, 0x80, 0x80,
;0x80, 0x80, 0x80, 0x80, 0x80, 0x80, 0x80, 0x80,
;0x80, 0x80, 0x80, 0x80, 0x80, 0x80, 0x80, 0x80,
;0x80, 0x80, 0x80, 0x80, 0x83, 0x8C, 0x90, 0x90,
;0x90, 0x8F, 0x83, 0x80, 0x80, 0x80, 0x80, 0x80,
;0x80, 0x80, 0x80, 0xFF, 0xFF, 0x00, 0x00, 0x00,
;0x00, 0x00, 0x00, 0x80, 0x80, 0x00, 0x00, 0x80,
;0x80, 0x80, 0x80, 0x00, 0x00, 0xC0, 0x20, 0x20,
;0xC0, 0x00, 0xC0, 0x20, 0x20, 0x00, 0x00, 0x00,
;0x00, 0x00, 0x00, 0x00, 0xF8, 0x04, 0x04, 0xF8,
;0x00, 0x00, 0x00, 0x00, 0x00, 0x00, 0xFF, 0x00,
;0x00, 0x00, 0x00, 0x00, 0x00, 0x80, 0x80, 0x00,
;0x00, 0x00, 0x00, 0x00, 0x00, 0x00, 0x00, 0x00,
;0x00, 0x00, 0x00, 0x00, 0x00, 0x00, 0x00, 0x00,
;0x00, 0xC0, 0x30, 0x1E, 0x30, 0xC0, 0x00, 0x00,
;0x00, 0x00, 0x00, 0x00, 0x00, 0x00, 0x00, 0xFF,
;0xFF, 0x00, 0x00, 0x00, 0x04, 0x06, 0x03, 0xFF,
;0xFF, 0x00, 0xFF, 0xFF, 0x99, 0x99, 0xFB, 0xF3,
;0x00, 0x00, 0x01, 0x01, 0x01, 0x00, 0x00, 0x01,
;0x01, 0x00, 0x00, 0x00, 0x00, 0x00, 0x00, 0x80,
;0xFF, 0xF0, 0xF0, 0xFF, 0x80, 0x00, 0x00, 0x00,
;0x00, 0x00, 0xFF, 0x00, 0x00, 0x00, 0x00, 0x00,
;0x00, 0xFF, 0xFF, 0xFE, 0x80, 0x80, 0x80, 0x00,
;0x00, 0x00, 0x00, 0x00, 0x00, 0x00, 0x00, 0x00,
;0x00, 0x80, 0x80, 0x80, 0x87, 0x98, 0xA0, 0xA0,
;0xA0, 0x98, 0x87, 0x80, 0x80, 0x80, 0x80, 0x80,
;0x00, 0x00, 0x00, 0xFF, 0xFF, 0x80, 0x80, 0x80,
;0x80, 0x80, 0x80, 0x81, 0x81, 0x80, 0x80, 0x81,
;0x81, 0x81, 0x81, 0x80, 0x80, 0x80, 0x80, 0x80,
;0x80, 0x80, 0x80, 0x80, 0x80, 0x80, 0x80, 0x80,
;0x80, 0x80, 0x87, 0x8F, 0x9F, 0x9F, 0x9F, 0x9F,
;0x8F, 0x87, 0x80, 0x80, 0x80, 0x80, 0xFF, 0x80,
;0x80, 0x80, 0x80, 0x80, 0x80, 0x81, 0x81, 0x81,
;0x81, 0x81, 0x81, 0x80, 0x80, 0x80, 0x80, 0x80,
;0x90, 0x98, 0x94, 0x9A, 0x95, 0x90, 0x9A, 0x9C,
;0x90, 0x95, 0x94, 0x90, 0x9E, 0x96, 0x90, 0x94,
;0x8A, 0x84, 0x82, 0x81, 0x80, 0x80, 0x80, 0xFF,
;#endif
;};
;
;#include "humid_85.c"
;/****************************************************************************
;Image data created by the LCD Vision V1.05 font & image editor/converter
;(C) Copyright 2011-2013 Pavel Haiduc, HP InfoTech s.r.l.
;http://www.hpinfotech.com
;
;Graphic LCD controller: PCD8544 (Nokia 3310, 5110) 84x48
;Image width: 84 pixels
;Image height: 48 pixels
;Color depth: 1 bits/pixel
;Imported image file name: New image
;
;Exported monochrome image data size:
;532 bytes for displays organized as horizontal rows of bytes
;508 bytes for displays organized as rows of vertical bytes.
;****************************************************************************/
;
;flash unsigned char humid_85[]=
;{
;/* Image width: 84 pixels */
;0x54, 0x00,
;/* Image height: 48 pixels */
;0x30, 0x00,
;#ifndef _GLCD_DATA_BYTEY_
;/* Image data for monochrome displays organized
;   as horizontal rows of bytes */
;0xFF, 0xFF, 0xFF, 0xFF, 0xFF, 0xFF, 0xFF, 0xFF,
;0xFF, 0xFF, 0x0F, 0x01, 0x00, 0x00, 0x00, 0x00,
;0x00, 0x00, 0x00, 0x00, 0x00, 0x08, 0x01, 0x00,
;0x00, 0x00, 0x00, 0x00, 0x00, 0x00, 0x00, 0x00,
;0x08, 0x01, 0x00, 0x00, 0x00, 0x00, 0x00, 0x00,
;0x00, 0x00, 0x00, 0x08, 0x01, 0x60, 0xCC, 0x98,
;0x61, 0xE6, 0xC3, 0xFE, 0x87, 0x01, 0x08, 0x01,
;0x60, 0xCC, 0x98, 0x73, 0x66, 0xC6, 0x30, 0xCC,
;0x00, 0x08, 0x01, 0x60, 0xCC, 0x98, 0x73, 0x66,
;0xCC, 0x30, 0xCC, 0x00, 0x08, 0x01, 0xE0, 0xCF,
;0x98, 0x7F, 0x66, 0xCC, 0x30, 0x78, 0x00, 0x08,
;0x01, 0x60, 0xCC, 0x98, 0x7F, 0x66, 0xCC, 0x30,
;0x30, 0x00, 0x08, 0x01, 0x60, 0xCC, 0x98, 0x7F,
;0x66, 0xCC, 0x30, 0x30, 0x00, 0x08, 0x01, 0x60,
;0xCC, 0x98, 0x6D, 0x66, 0xC6, 0x30, 0x30, 0x00,
;0x08, 0x01, 0x60, 0x8C, 0x8F, 0x6D, 0xE6, 0xC3,
;0x30, 0x30, 0x00, 0x08, 0x01, 0x00, 0x00, 0x00,
;0x00, 0x00, 0x00, 0x00, 0x00, 0x00, 0x08, 0x01,
;0x00, 0x00, 0x00, 0x00, 0x00, 0x00, 0x00, 0x00,
;0x00, 0x08, 0x01, 0x00, 0x00, 0x00, 0x00, 0x00,
;0x00, 0x00, 0x00, 0x00, 0x08, 0x01, 0x00, 0x00,
;0x00, 0x00, 0x00, 0x00, 0x00, 0x00, 0x00, 0x08,
;0x01, 0x00, 0x00, 0x00, 0x00, 0x00, 0x00, 0x00,
;0x00, 0x00, 0x08, 0x01, 0x00, 0x00, 0x00, 0x00,
;0x00, 0x00, 0x00, 0x00, 0x00, 0x08, 0x01, 0x00,
;0x00, 0x00, 0x70, 0x18, 0x00, 0x00, 0x00, 0x00,
;0x08, 0x01, 0x00, 0x00, 0x00, 0xD8, 0x0C, 0x00,
;0x00, 0x00, 0x00, 0x08, 0x01, 0x00, 0x00, 0x00,
;0xD8, 0x0C, 0x00, 0x00, 0x00, 0x00, 0x08, 0x01,
;0x00, 0x00, 0x00, 0xD8, 0x06, 0x00, 0x20, 0x00,
;0x00, 0x08, 0x01, 0x00, 0x00, 0x00, 0x70, 0x06,
;0x00, 0x20, 0x00, 0x00, 0x08, 0x01, 0xC0, 0x0F,
;0xFC, 0x01, 0x03, 0x00, 0x20, 0x00, 0x00, 0x08,
;0x01, 0xE0, 0x1F, 0xFC, 0x01, 0x3B, 0x00, 0x50,
;0x00, 0x00, 0x08, 0x01, 0xF0, 0x3C, 0x0E, 0x80,
;0x6D, 0x00, 0x50, 0x00, 0x00, 0x08, 0x01, 0x70,
;0x38, 0x0E, 0x80, 0x6D, 0x00, 0x88, 0x00, 0x00,
;0x08, 0x01, 0x70, 0x38, 0x0E, 0xC0, 0x6C, 0x00,
;0x88, 0x00, 0x00, 0x08, 0x01, 0xE0, 0x1C, 0xFE,
;0xC0, 0x38, 0x00, 0x04, 0x01, 0x00, 0x08, 0x01,
;0xC0, 0x0F, 0xFF, 0x01, 0x00, 0x00, 0x04, 0x01,
;0x00, 0x08, 0x01, 0xC0, 0x0F, 0xC7, 0x03, 0x00,
;0x00, 0x02, 0x02, 0x00, 0x08, 0x01, 0xE0, 0x1C,
;0x80, 0x03, 0x00, 0x00, 0x02, 0x02, 0x00, 0x08,
;0x01, 0x70, 0x38, 0x80, 0x03, 0x00, 0x00, 0x02,
;0x02, 0x00, 0x08, 0x01, 0x70, 0x38, 0x80, 0x03,
;0x00, 0x00, 0x04, 0x01, 0x00, 0x08, 0x01, 0x70,
;0x38, 0x87, 0x03, 0x00, 0x00, 0xF8, 0x00, 0x00,
;0x08, 0x01, 0xF0, 0x3C, 0xCF, 0x01, 0x00, 0x00,
;0x00, 0x00, 0x00, 0x08, 0x01, 0xE0, 0x1F, 0xFE,
;0x01, 0x00, 0x00, 0x00, 0x00, 0x00, 0x08, 0x01,
;0xC0, 0x0F, 0x7C, 0x00, 0x00, 0x00, 0x00, 0x00,
;0x00, 0x08, 0x01, 0x00, 0x00, 0x00, 0x00, 0x00,
;0x00, 0x00, 0x00, 0x00, 0x08, 0x01, 0x00, 0x00,
;0x00, 0x00, 0x00, 0x00, 0x00, 0x00, 0x00, 0x08,
;0x01, 0x00, 0x00, 0x00, 0x00, 0x00, 0x00, 0x00,
;0x00, 0x00, 0x08, 0x01, 0x00, 0x00, 0x00, 0x00,
;0x00, 0x00, 0x00, 0x00, 0x00, 0x08, 0x01, 0x00,
;0x00, 0x00, 0x00, 0x00, 0x00, 0x00, 0x00, 0x00,
;0x08, 0x01, 0x00, 0x00, 0x00, 0x00, 0x00, 0x00,
;0x00, 0x00, 0x00, 0x08, 0x01, 0x00, 0x00, 0x00,
;0x00, 0x00, 0x00, 0x00, 0x00, 0x00, 0x08, 0x01,
;0x00, 0x00, 0x00, 0x00, 0x00, 0x00, 0x00, 0x00,
;0x00, 0x08, 0x01, 0x00, 0x00, 0x00, 0x00, 0x00,
;0x00, 0x00, 0x00, 0x00, 0x08, 0xFF, 0xFF, 0xFF,
;0xFF, 0xFF, 0xFF, 0xFF, 0xFF, 0xFF, 0xFF, 0x0F,
;#else
;/* Image data for monochrome displays organized
;   as rows of vertical bytes */
;0xFF, 0x01, 0x01, 0x01, 0x01, 0x01, 0x01, 0x01,
;0x01, 0x01, 0x01, 0x01, 0x01, 0xF1, 0xF1, 0x81,
;0x81, 0x81, 0xF1, 0xF1, 0x01, 0x01, 0xF1, 0xF1,
;0x01, 0x01, 0x01, 0xF1, 0xF1, 0x01, 0x01, 0xF1,
;0xF1, 0xE1, 0x81, 0x81, 0xE1, 0xF1, 0xF1, 0x01,
;0x01, 0xF1, 0xF1, 0x01, 0x01, 0xF1, 0xF1, 0x11,
;0x11, 0x31, 0xE1, 0xC1, 0x01, 0x01, 0xF1, 0xF1,
;0x01, 0x11, 0x11, 0x11, 0xF1, 0xF1, 0x11, 0x11,
;0x11, 0x11, 0x71, 0xE1, 0x81, 0x81, 0xE1, 0x71,
;0x11, 0x01, 0x01, 0x01, 0x01, 0x01, 0x01, 0x01,
;0x01, 0x01, 0x01, 0xFF, 0xFF, 0x00, 0x00, 0x00,
;0x00, 0x00, 0x00, 0x00, 0x00, 0x00, 0x00, 0x00,
;0x00, 0x0F, 0x0F, 0x00, 0x00, 0x00, 0x0F, 0x0F,
;0x00, 0x00, 0x07, 0x0F, 0x08, 0x08, 0x08, 0x0F,
;0x07, 0x00, 0x00, 0x0F, 0x0F, 0x03, 0x0F, 0x0F,
;0x03, 0x0F, 0x0F, 0x00, 0x00, 0x0F, 0x0F, 0x00,
;0x00, 0x0F, 0x0F, 0x08, 0x08, 0x0C, 0x07, 0x03,
;0x00, 0x00, 0x0F, 0x0F, 0x00, 0x00, 0x00, 0x00,
;0x0F, 0x0F, 0x00, 0x00, 0x00, 0x00, 0x00, 0x00,
;0x0F, 0x0F, 0x00, 0x00, 0x00, 0x00, 0x00, 0x00,
;0x00, 0x00, 0x00, 0x00, 0x00, 0x00, 0x00, 0xFF,
;0xFF, 0x00, 0x00, 0x00, 0x00, 0x00, 0x00, 0x00,
;0x00, 0x00, 0x00, 0x00, 0x00, 0x00, 0x80, 0x80,
;0x80, 0x80, 0x80, 0x80, 0x00, 0x00, 0x00, 0x00,
;0x00, 0x00, 0x80, 0x80, 0x80, 0x80, 0x80, 0x80,
;0x80, 0x00, 0x00, 0x38, 0x7C, 0x44, 0x7C, 0x38,
;0x80, 0xE0, 0x78, 0x1C, 0x04, 0x00, 0x00, 0x00,
;0x00, 0x00, 0x00, 0x00, 0x00, 0x00, 0x00, 0x00,
;0x00, 0x00, 0x00, 0x00, 0x00, 0xE0, 0x00, 0x00,
;0x00, 0x00, 0x00, 0x00, 0x00, 0x00, 0x00, 0x00,
;0x00, 0x00, 0x00, 0x00, 0x00, 0x00, 0x00, 0x00,
;0x00, 0x00, 0x00, 0xFF, 0xFF, 0x00, 0x00, 0x00,
;0x00, 0x00, 0x00, 0x00, 0x00, 0x00, 0x00, 0x00,
;0x0E, 0x9F, 0xFF, 0xF3, 0x61, 0x61, 0xF3, 0xFF,
;0x9F, 0x0E, 0x00, 0x00, 0x60, 0x7E, 0x7F, 0x3F,
;0x31, 0x31, 0x71, 0xF1, 0xE1, 0xC0, 0x00, 0x00,
;0x00, 0x00, 0x18, 0x1E, 0x07, 0x01, 0x0E, 0x1F,
;0x11, 0x1F, 0x0E, 0x00, 0x00, 0x00, 0x00, 0x00,
;0x00, 0x00, 0x00, 0x00, 0x00, 0xC0, 0x30, 0x0C,
;0x03, 0x00, 0x03, 0x0C, 0x30, 0xC0, 0x00, 0x00,
;0x00, 0x00, 0x00, 0x00, 0x00, 0x00, 0x00, 0x00,
;0x00, 0x00, 0x00, 0x00, 0x00, 0x00, 0x00, 0xFF,
;0xFF, 0x00, 0x00, 0x00, 0x00, 0x00, 0x00, 0x00,
;0x00, 0x00, 0x00, 0x00, 0x0F, 0x1F, 0x3F, 0x38,
;0x30, 0x30, 0x38, 0x3F, 0x1F, 0x0F, 0x00, 0x00,
;0x0C, 0x1C, 0x3C, 0x38, 0x30, 0x30, 0x38, 0x1F,
;0x1F, 0x07, 0x00, 0x00, 0x00, 0x00, 0x00, 0x00,
;0x00, 0x00, 0x00, 0x00, 0x00, 0x00, 0x00, 0x00,
;0x00, 0x00, 0x00, 0x00, 0x00, 0x00, 0x00, 0x00,
;0x00, 0x01, 0x02, 0x04, 0x04, 0x04, 0x04, 0x04,
;0x02, 0x01, 0x00, 0x00, 0x00, 0x00, 0x00, 0x00,
;0x00, 0x00, 0x00, 0x00, 0x00, 0x00, 0x00, 0x00,
;0x00, 0x00, 0x00, 0xFF, 0xFF, 0x80, 0x80, 0x80,
;0x80, 0x80, 0x80, 0x80, 0x80, 0x80, 0x80, 0x80,
;0x80, 0x80, 0x80, 0x80, 0x80, 0x80, 0x80, 0x80,
;0x80, 0x80, 0x80, 0x80, 0x80, 0x80, 0x80, 0x80,
;0x80, 0x80, 0x80, 0x80, 0x80, 0x80, 0x80, 0x80,
;0x80, 0x80, 0x80, 0x80, 0x80, 0x80, 0x80, 0x80,
;0x80, 0x80, 0x80, 0x80, 0x80, 0x80, 0x80, 0x80,
;0x80, 0x80, 0x80, 0x80, 0x80, 0x80, 0x80, 0x80,
;0x80, 0x80, 0x80, 0x80, 0x80, 0x80, 0x80, 0x80,
;0x80, 0x80, 0x80, 0x80, 0x80, 0x80, 0x80, 0x80,
;0x80, 0x80, 0x80, 0x80, 0x80, 0x80, 0x80, 0xFF,
;#endif
;};
;
;#include "soil_dry.c"
;/****************************************************************************
;Image data created by the LCD Vision V1.05 font & image editor/converter
;(C) Copyright 2011-2013 Pavel Haiduc, HP InfoTech s.r.l.
;http://www.hpinfotech.com
;
;Graphic LCD controller: PCD8544 (Nokia 3310, 5110) 84x48
;Image width: 84 pixels
;Image height: 48 pixels
;Color depth: 1 bits/pixel
;Imported image file name: New image
;
;Exported monochrome image data size:
;532 bytes for displays organized as horizontal rows of bytes
;508 bytes for displays organized as rows of vertical bytes.
;****************************************************************************/
;
;flash unsigned char soil_dry[]=
;{
;/* Image width: 84 pixels */
;0x54, 0x00,
;/* Image height: 48 pixels */
;0x30, 0x00,
;#ifndef _GLCD_DATA_BYTEY_
;/* Image data for monochrome displays organized
;   as horizontal rows of bytes */
;0xFF, 0xFF, 0xFF, 0xFF, 0xFF, 0xFF, 0xFF, 0xFF,
;0xFF, 0xFF, 0x0F, 0x01, 0x00, 0x00, 0x00, 0x00,
;0x00, 0x00, 0x00, 0x00, 0x00, 0x08, 0x01, 0x00,
;0x00, 0x00, 0x00, 0x00, 0x00, 0x00, 0x00, 0x00,
;0x08, 0xF1, 0x78, 0x36, 0xC0, 0x98, 0x67, 0x9E,
;0xDF, 0xEC, 0xF3, 0x09, 0x99, 0xCD, 0x36, 0xC0,
;0xDD, 0x6C, 0xB3, 0xDF, 0x6C, 0xF6, 0x09, 0x19,
;0xCC, 0x36, 0xC0, 0xDF, 0x6C, 0x03, 0xC6, 0x6C,
;0x36, 0x08, 0x79, 0xCC, 0x36, 0xC0, 0xDA, 0x6C,
;0x0F, 0xC6, 0xEC, 0xF3, 0x09, 0xE1, 0xCD, 0x36,
;0xC0, 0xD8, 0x6C, 0x3C, 0xC6, 0xEC, 0xF0, 0x09,
;0x81, 0xCD, 0x36, 0xC0, 0xD8, 0x6C, 0x30, 0xC6,
;0xEC, 0x31, 0x08, 0x99, 0xCD, 0xF6, 0xC3, 0xD8,
;0x6C, 0x33, 0xC6, 0x6C, 0xF3, 0x09, 0xF1, 0x78,
;0xF6, 0xC3, 0x98, 0x67, 0x1E, 0x86, 0x67, 0xF6,
;0x09, 0x01, 0x00, 0x00, 0x00, 0x00, 0x00, 0x00,
;0x00, 0x00, 0x00, 0x08, 0x01, 0x00, 0x00, 0x00,
;0x00, 0x00, 0x00, 0x00, 0x00, 0x00, 0x08, 0x01,
;0x00, 0x00, 0x00, 0x00, 0x00, 0x00, 0x00, 0x00,
;0x00, 0x08, 0x01, 0x00, 0x00, 0x00, 0x00, 0x00,
;0x00, 0x00, 0x00, 0x00, 0x08, 0x01, 0x00, 0x00,
;0x00, 0x00, 0x00, 0x00, 0x00, 0x00, 0x00, 0x08,
;0x01, 0x00, 0x00, 0x00, 0x00, 0x00, 0x02, 0x00,
;0x00, 0x00, 0x08, 0x01, 0x00, 0x00, 0x00, 0x00,
;0x00, 0x02, 0x00, 0x00, 0x00, 0x08, 0x01, 0x00,
;0x00, 0x00, 0x00, 0x00, 0x02, 0x00, 0x00, 0x00,
;0x08, 0x01, 0x00, 0x00, 0x00, 0x00, 0x00, 0x05,
;0x00, 0x00, 0x00, 0x08, 0x01, 0x00, 0x00, 0x00,
;0x00, 0x00, 0x05, 0x00, 0x00, 0x00, 0x08, 0x01,
;0x00, 0x00, 0x00, 0x00, 0x80, 0x08, 0x00, 0x00,
;0x00, 0x08, 0xC1, 0x1F, 0x00, 0x00, 0x00, 0x80,
;0x08, 0x00, 0x10, 0x08, 0x08, 0xC1, 0x7F, 0x00,
;0x00, 0x80, 0x41, 0x10, 0x18, 0x92, 0x49, 0x08,
;0xC1, 0x60, 0x00, 0x00, 0x80, 0x43, 0x10, 0x1C,
;0x54, 0x2A, 0x08, 0xC1, 0xC0, 0xEC, 0xC1, 0x00,
;0x27, 0x20, 0x0E, 0x38, 0x1C, 0x08, 0xC1, 0xC0,
;0xFC, 0xC1, 0x00, 0x2E, 0x20, 0x07, 0x38, 0x1C,
;0x08, 0xC1, 0xC0, 0x1C, 0x63, 0x00, 0x1C, 0xC0,
;0x83, 0xFF, 0xFF, 0x09, 0xC1, 0xC0, 0x0C, 0x63,
;0x00, 0x38, 0xC0, 0x81, 0x10, 0x08, 0x09, 0xC1,
;0xC0, 0x0C, 0x36, 0x00, 0x78, 0xE0, 0x80, 0x00,
;0x00, 0x09, 0xC1, 0xC0, 0x0C, 0x36, 0x00, 0xE8,
;0xF0, 0x80, 0xFF, 0xFF, 0x09, 0xC1, 0x60, 0x0C,
;0x3E, 0x00, 0xC4, 0x39, 0x81, 0x00, 0x00, 0x09,
;0xC1, 0x7F, 0x0C, 0x1C, 0x00, 0x84, 0x1F, 0x81,
;0x00, 0x00, 0x09, 0xC1, 0x1F, 0x0C, 0x1C, 0x00,
;0x02, 0x0F, 0x82, 0x30, 0x0C, 0x09, 0x01, 0x00,
;0x00, 0x0C, 0x00, 0x02, 0x0F, 0x82, 0xCF, 0xF3,
;0x09, 0x01, 0x00, 0x00, 0x0F, 0x00, 0x82, 0x1F,
;0x82, 0x24, 0x49, 0x09, 0x01, 0x00, 0x00, 0x07,
;0x00, 0xC2, 0x39, 0x82, 0x92, 0x24, 0x09, 0x01,
;0x00, 0x00, 0x00, 0x00, 0xE2, 0x70, 0x82, 0x79,
;0x9E, 0x09, 0x01, 0x00, 0x00, 0x00, 0x00, 0x72,
;0xE0, 0x82, 0xFF, 0xFF, 0x09, 0x01, 0x00, 0x00,
;0x00, 0x00, 0x3C, 0xC0, 0x81, 0x7B, 0xDF, 0x09,
;0x01, 0x00, 0x00, 0x00, 0x00, 0x1C, 0x80, 0x83,
;0xBD, 0xEF, 0x09, 0x01, 0x00, 0x00, 0x00, 0x00,
;0x1E, 0x40, 0x87, 0xDE, 0xF7, 0x09, 0x01, 0x00,
;0x00, 0x00, 0x00, 0x27, 0x20, 0x8E, 0xCF, 0xF3,
;0x09, 0x01, 0x00, 0x00, 0x00, 0x80, 0x43, 0x10,
;0x1C, 0x00, 0x00, 0x08, 0x01, 0x00, 0x00, 0x00,
;0x80, 0x81, 0x0F, 0x18, 0x00, 0x00, 0x08, 0x01,
;0x00, 0x00, 0x00, 0x00, 0x00, 0x00, 0x00, 0x00,
;0x00, 0x08, 0x01, 0x00, 0x00, 0x00, 0x00, 0x00,
;0x00, 0x00, 0x00, 0x00, 0x08, 0xFF, 0xFF, 0xFF,
;0xFF, 0xFF, 0xFF, 0xFF, 0xFF, 0xFF, 0xFF, 0x0F,
;#else
;/* Image data for monochrome displays organized
;   as rows of vertical bytes */
;0xFF, 0x01, 0x01, 0x71, 0x79, 0xC9, 0xC9, 0x99,
;0x91, 0x01, 0xF1, 0xF9, 0x09, 0x09, 0xF9, 0xF1,
;0x01, 0xF9, 0xF9, 0x01, 0xF9, 0xF9, 0x01, 0x01,
;0x01, 0x01, 0x01, 0x01, 0x01, 0x01, 0xF9, 0xF9,
;0x31, 0x61, 0x31, 0xF9, 0xF9, 0x01, 0xF1, 0xF9,
;0x09, 0x09, 0xF9, 0xF1, 0x01, 0xF9, 0xF9, 0x01,
;0x71, 0x79, 0xC9, 0xC9, 0x99, 0x91, 0x01, 0x19,
;0x19, 0xF9, 0xF9, 0x19, 0x19, 0x01, 0xF9, 0xF9,
;0x01, 0x01, 0xF9, 0xF9, 0x01, 0xF9, 0xF9, 0xC9,
;0x49, 0x79, 0x31, 0x01, 0xF9, 0xF9, 0xD9, 0xD9,
;0xD9, 0x01, 0x01, 0xFF, 0xFF, 0x00, 0x00, 0x02,
;0x06, 0x04, 0x04, 0x07, 0x03, 0x00, 0x03, 0x07,
;0x04, 0x04, 0x07, 0x03, 0x00, 0x07, 0x07, 0x00,
;0x07, 0x07, 0x06, 0x06, 0x06, 0x06, 0x00, 0x00,
;0x00, 0x00, 0x07, 0x07, 0x00, 0x00, 0x00, 0x07,
;0x07, 0x00, 0x03, 0x07, 0x04, 0x04, 0x07, 0x03,
;0x00, 0x07, 0x07, 0x00, 0x02, 0x06, 0x04, 0x04,
;0x07, 0x03, 0x00, 0x00, 0x00, 0x07, 0x07, 0x00,
;0x00, 0x00, 0x03, 0x07, 0x04, 0x04, 0x07, 0x03,
;0x00, 0x07, 0x07, 0x01, 0x03, 0x06, 0x04, 0x00,
;0x07, 0x07, 0x06, 0x06, 0x06, 0x00, 0x00, 0xFF,
;0xFF, 0x00, 0x00, 0x00, 0x00, 0x00, 0xC0, 0xC0,
;0xC0, 0xC0, 0xC0, 0xC0, 0xC0, 0x80, 0x80, 0x00,
;0x00, 0x00, 0x00, 0x00, 0x00, 0x00, 0x00, 0x00,
;0x00, 0x00, 0x00, 0x00, 0x00, 0x00, 0x00, 0x00,
;0x00, 0x00, 0x00, 0x00, 0x00, 0x00, 0x00, 0x80,
;0x80, 0x00, 0x00, 0x00, 0x00, 0x00, 0x80, 0x60,
;0x18, 0x07, 0x18, 0x60, 0x80, 0x00, 0x00, 0x00,
;0x00, 0x00, 0x00, 0x80, 0x80, 0x00, 0x00, 0x00,
;0x00, 0x80, 0x00, 0x00, 0xC0, 0x00, 0x00, 0x80,
;0x80, 0x00, 0x00, 0xC0, 0x00, 0x00, 0x80, 0x00,
;0x00, 0x00, 0x00, 0xFF, 0xFF, 0x00, 0x00, 0x00,
;0x00, 0x00, 0xFF, 0xFF, 0x00, 0x00, 0x00, 0x00,
;0x00, 0x81, 0xFF, 0x7E, 0x00, 0x00, 0xFE, 0xFE,
;0x0C, 0x06, 0x06, 0x06, 0x1E, 0xF8, 0xE0, 0x80,
;0xE0, 0xF8, 0x1E, 0x06, 0x00, 0x00, 0x00, 0x00,
;0x00, 0x00, 0x00, 0x01, 0x03, 0x07, 0x8E, 0x7C,
;0x38, 0x76, 0xE1, 0xC0, 0x80, 0x00, 0x00, 0x80,
;0xC1, 0xE6, 0x78, 0x78, 0x9C, 0x0E, 0x07, 0x03,
;0x01, 0x00, 0x00, 0xF8, 0x48, 0x48, 0x49, 0x4E,
;0x5F, 0x4E, 0x49, 0x48, 0x48, 0x49, 0x4E, 0x5F,
;0x4E, 0x49, 0x48, 0x48, 0xF8, 0x00, 0x00, 0xFF,
;0xFF, 0x00, 0x00, 0x00, 0x00, 0x00, 0x03, 0x03,
;0x03, 0x03, 0x03, 0x03, 0x03, 0x01, 0x01, 0x00,
;0x00, 0x00, 0x03, 0x03, 0x00, 0x00, 0x00, 0x00,
;0x18, 0x18, 0x1F, 0x0F, 0x03, 0x00, 0x00, 0x00,
;0x00, 0x00, 0x00, 0x00, 0x00, 0x00, 0x00, 0x00,
;0x00, 0x7E, 0x81, 0x80, 0xC0, 0xE0, 0x70, 0x39,
;0x1F, 0x0F, 0x0F, 0x1F, 0x39, 0x70, 0xE0, 0xC0,
;0x81, 0x7E, 0x00, 0x00, 0x00, 0x00, 0x00, 0xFF,
;0xE4, 0xD4, 0x4C, 0xE4, 0xF2, 0xEA, 0xE4, 0x54,
;0xCC, 0xE4, 0xF2, 0xEA, 0xE4, 0x54, 0xCC, 0xE4,
;0xFF, 0x00, 0x00, 0xFF, 0xFF, 0x80, 0x80, 0x80,
;0x80, 0x80, 0x80, 0x80, 0x80, 0x80, 0x80, 0x80,
;0x80, 0x80, 0x80, 0x80, 0x80, 0x80, 0x80, 0x80,
;0x80, 0x80, 0x80, 0x80, 0x80, 0x80, 0x80, 0x80,
;0x80, 0x80, 0x80, 0x80, 0x80, 0x80, 0x80, 0x80,
;0x80, 0x80, 0x80, 0x98, 0x9C, 0x8E, 0x87, 0x83,
;0x83, 0x84, 0x88, 0x90, 0x90, 0x90, 0x90, 0x90,
;0x88, 0x84, 0x82, 0x81, 0x83, 0x87, 0x8E, 0x9C,
;0x98, 0x80, 0x80, 0x87, 0x85, 0x86, 0x87, 0x87,
;0x83, 0x81, 0x86, 0x87, 0x87, 0x87, 0x83, 0x81,
;0x86, 0x87, 0x87, 0x87, 0x87, 0x80, 0x80, 0xFF,
;#endif
;};
;
;#include "soil_wet.c"
;/****************************************************************************
;Image data created by the LCD Vision V1.05 font & image editor/converter
;(C) Copyright 2011-2013 Pavel Haiduc, HP InfoTech s.r.l.
;http://www.hpinfotech.com
;
;Graphic LCD controller: PCD8544 (Nokia 3310, 5110) 84x48
;Image width: 84 pixels
;Image height: 48 pixels
;Color depth: 1 bits/pixel
;Imported image file name: New image
;
;Exported monochrome image data size:
;532 bytes for displays organized as horizontal rows of bytes
;508 bytes for displays organized as rows of vertical bytes.
;****************************************************************************/
;
;flash unsigned char soil_wet[]=
;{
;/* Image width: 84 pixels */
;0x54, 0x00,
;/* Image height: 48 pixels */
;0x30, 0x00,
;#ifndef _GLCD_DATA_BYTEY_
;/* Image data for monochrome displays organized
;   as horizontal rows of bytes */
;0xFF, 0xFF, 0xFF, 0xFF, 0xFF, 0xFF, 0xFF, 0xFF,
;0xFF, 0xFF, 0x0F, 0x01, 0x00, 0x00, 0x00, 0x00,
;0x00, 0x00, 0x00, 0x00, 0x00, 0x08, 0x01, 0x00,
;0x00, 0x00, 0x00, 0x00, 0x00, 0x00, 0x00, 0x00,
;0x08, 0xF1, 0x78, 0x36, 0xC0, 0x98, 0x67, 0x9E,
;0xDF, 0xEC, 0xF3, 0x09, 0x99, 0xCD, 0x36, 0xC0,
;0xDD, 0x6C, 0xB3, 0xDF, 0x6C, 0xF6, 0x09, 0x19,
;0xCC, 0x36, 0xC0, 0xDF, 0x6C, 0x03, 0xC6, 0x6C,
;0x36, 0x08, 0x79, 0xCC, 0x36, 0xC0, 0xDA, 0x6C,
;0x0F, 0xC6, 0xEC, 0xF3, 0x09, 0xE1, 0xCD, 0x36,
;0xC0, 0xD8, 0x6C, 0x3C, 0xC6, 0xEC, 0xF0, 0x09,
;0x81, 0xCD, 0x36, 0xC0, 0xD8, 0x6C, 0x30, 0xC6,
;0xEC, 0x31, 0x08, 0x99, 0xCD, 0xF6, 0xC3, 0xD8,
;0x6C, 0x33, 0xC6, 0x6C, 0xF3, 0x09, 0xF1, 0x78,
;0xF6, 0xC3, 0x98, 0x67, 0x1E, 0x86, 0x67, 0xF6,
;0x09, 0x01, 0x00, 0x00, 0x00, 0x00, 0x00, 0x00,
;0x00, 0x00, 0x00, 0x08, 0x01, 0x00, 0x00, 0x00,
;0x00, 0x00, 0x00, 0x00, 0x00, 0x00, 0x08, 0x01,
;0x00, 0x00, 0x00, 0x00, 0x00, 0x00, 0x00, 0x00,
;0x00, 0x08, 0x01, 0x00, 0x00, 0x00, 0x00, 0x00,
;0x00, 0x00, 0x00, 0x00, 0x08, 0x01, 0x00, 0x00,
;0x00, 0x00, 0x00, 0x00, 0x00, 0x00, 0x00, 0x08,
;0x01, 0x00, 0x00, 0x00, 0x00, 0x00, 0x02, 0x00,
;0x00, 0x00, 0x08, 0x01, 0x00, 0x00, 0x00, 0x00,
;0x00, 0x02, 0x00, 0x00, 0x00, 0x08, 0x01, 0x00,
;0x00, 0x00, 0x00, 0x00, 0x02, 0x00, 0x00, 0x00,
;0x08, 0x01, 0x00, 0x00, 0x00, 0x00, 0x00, 0x07,
;0x00, 0x00, 0x00, 0x08, 0x01, 0x00, 0x00, 0x00,
;0x00, 0x00, 0x07, 0x00, 0x00, 0x00, 0x08, 0x01,
;0x00, 0x00, 0x00, 0x00, 0x80, 0x0F, 0x00, 0x00,
;0x00, 0x08, 0x01, 0x00, 0x00, 0x00, 0x00, 0x80,
;0x0F, 0x00, 0x10, 0x08, 0x08, 0xC1, 0x70, 0x18,
;0x00, 0x01, 0xC0, 0x1F, 0x00, 0x92, 0x49, 0x08,
;0xC1, 0x71, 0x18, 0x80, 0x01, 0xC0, 0x1F, 0x00,
;0x54, 0x2A, 0x08, 0x81, 0x71, 0x0C, 0x80, 0x01,
;0xE0, 0x3F, 0x00, 0x38, 0x1C, 0x08, 0x81, 0xD9,
;0x0C, 0xC7, 0x07, 0xE0, 0x3F, 0x00, 0x38, 0x1C,
;0x08, 0x81, 0xD9, 0x8C, 0xCF, 0x07, 0xF0, 0x7F,
;0x80, 0xFF, 0xFF, 0x09, 0x01, 0xDB, 0xC6, 0x98,
;0x01, 0xF0, 0x7F, 0x80, 0x10, 0x08, 0x09, 0x01,
;0xDB, 0xC6, 0x9F, 0x01, 0xF8, 0xFF, 0x80, 0x00,
;0x00, 0x09, 0x01, 0xDB, 0xC6, 0x9F, 0x01, 0xF8,
;0xFF, 0x80, 0xFF, 0xFF, 0x09, 0x01, 0x8E, 0xC7,
;0x80, 0x01, 0xFC, 0xFF, 0x81, 0x00, 0x00, 0x09,
;0x01, 0x8E, 0xC3, 0x99, 0x01, 0xFC, 0xFF, 0x81,
;0x00, 0x00, 0x09, 0x01, 0x8E, 0x83, 0x8F, 0x07,
;0xFE, 0xFF, 0x83, 0x30, 0x0C, 0x09, 0x01, 0x8E,
;0x03, 0x07, 0x07, 0xFE, 0xFF, 0x83, 0xCF, 0xF3,
;0x09, 0x01, 0x00, 0x00, 0x00, 0x00, 0xFE, 0xFF,
;0x83, 0x24, 0x49, 0x09, 0x01, 0x00, 0x00, 0x00,
;0x00, 0xFE, 0xFF, 0x83, 0x92, 0x24, 0x09, 0x01,
;0x00, 0x00, 0x00, 0x00, 0xFE, 0xFF, 0x83, 0x79,
;0x9E, 0x09, 0x01, 0x00, 0x00, 0x00, 0x00, 0xFE,
;0xFF, 0x83, 0xFF, 0xFF, 0x09, 0x01, 0x00, 0x00,
;0x00, 0x00, 0xFC, 0xFF, 0x81, 0x7B, 0xDF, 0x09,
;0x01, 0x00, 0x00, 0x00, 0x00, 0xF8, 0xFF, 0x80,
;0xBD, 0xEF, 0x09, 0x01, 0x00, 0x00, 0x00, 0x00,
;0xF0, 0x7F, 0x80, 0xDE, 0xF7, 0x09, 0x01, 0x00,
;0x00, 0x00, 0x00, 0xE0, 0x3F, 0x80, 0xCF, 0xF3,
;0x09, 0x01, 0x00, 0x00, 0x00, 0x00, 0xC0, 0x1F,
;0x00, 0x00, 0x00, 0x08, 0x01, 0x00, 0x00, 0x00,
;0x00, 0x80, 0x0F, 0x00, 0x00, 0x00, 0x08, 0x01,
;0x00, 0x00, 0x00, 0x00, 0x00, 0x00, 0x00, 0x00,
;0x00, 0x08, 0x01, 0x00, 0x00, 0x00, 0x00, 0x00,
;0x00, 0x00, 0x00, 0x00, 0x08, 0xFF, 0xFF, 0xFF,
;0xFF, 0xFF, 0xFF, 0xFF, 0xFF, 0xFF, 0xFF, 0x0F,
;#else
;/* Image data for monochrome displays organized
;   as rows of vertical bytes */
;0xFF, 0x01, 0x01, 0x71, 0x79, 0xC9, 0xC9, 0x99,
;0x91, 0x01, 0xF1, 0xF9, 0x09, 0x09, 0xF9, 0xF1,
;0x01, 0xF9, 0xF9, 0x01, 0xF9, 0xF9, 0x01, 0x01,
;0x01, 0x01, 0x01, 0x01, 0x01, 0x01, 0xF9, 0xF9,
;0x31, 0x61, 0x31, 0xF9, 0xF9, 0x01, 0xF1, 0xF9,
;0x09, 0x09, 0xF9, 0xF1, 0x01, 0xF9, 0xF9, 0x01,
;0x71, 0x79, 0xC9, 0xC9, 0x99, 0x91, 0x01, 0x19,
;0x19, 0xF9, 0xF9, 0x19, 0x19, 0x01, 0xF9, 0xF9,
;0x01, 0x01, 0xF9, 0xF9, 0x01, 0xF9, 0xF9, 0xC9,
;0x49, 0x79, 0x31, 0x01, 0xF9, 0xF9, 0xD9, 0xD9,
;0xD9, 0x01, 0x01, 0xFF, 0xFF, 0x00, 0x00, 0x02,
;0x06, 0x04, 0x04, 0x07, 0x03, 0x00, 0x03, 0x07,
;0x04, 0x04, 0x07, 0x03, 0x00, 0x07, 0x07, 0x00,
;0x07, 0x07, 0x06, 0x06, 0x06, 0x06, 0x00, 0x00,
;0x00, 0x00, 0x07, 0x07, 0x00, 0x00, 0x00, 0x07,
;0x07, 0x00, 0x03, 0x07, 0x04, 0x04, 0x07, 0x03,
;0x00, 0x07, 0x07, 0x00, 0x02, 0x06, 0x04, 0x04,
;0x07, 0x03, 0x00, 0x00, 0x00, 0x07, 0x07, 0x00,
;0x00, 0x00, 0x03, 0x07, 0x04, 0x04, 0x07, 0x03,
;0x00, 0x07, 0x07, 0x01, 0x03, 0x06, 0x04, 0x00,
;0x07, 0x07, 0x06, 0x06, 0x06, 0x00, 0x00, 0xFF,
;0xFF, 0x00, 0x00, 0x00, 0x00, 0x00, 0x80, 0x80,
;0x00, 0x00, 0x00, 0x00, 0x80, 0x80, 0x80, 0x00,
;0x00, 0x00, 0x00, 0x80, 0x80, 0x00, 0x00, 0x00,
;0x00, 0x00, 0x00, 0x00, 0x00, 0x00, 0x00, 0x00,
;0x80, 0x00, 0x00, 0x00, 0x00, 0x00, 0x00, 0x00,
;0x00, 0x00, 0x00, 0x00, 0x00, 0x00, 0x80, 0xE0,
;0xF8, 0xFF, 0xF8, 0xE0, 0x80, 0x00, 0x00, 0x00,
;0x00, 0x00, 0x00, 0x00, 0x00, 0x00, 0x00, 0x00,
;0x00, 0x80, 0x00, 0x00, 0xC0, 0x00, 0x00, 0x80,
;0x80, 0x00, 0x00, 0xC0, 0x00, 0x00, 0x80, 0x00,
;0x00, 0x00, 0x00, 0xFF, 0xFF, 0x00, 0x00, 0x00,
;0x00, 0x00, 0x01, 0x0F, 0x7F, 0xF0, 0x80, 0xFC,
;0x7F, 0x03, 0x7F, 0xFC, 0x80, 0xF0, 0xFE, 0x0F,
;0x01, 0x00, 0xF0, 0xF8, 0x6C, 0x6C, 0x6C, 0x78,
;0x70, 0x00, 0x0C, 0xFF, 0xFF, 0x0C, 0x0C, 0x00,
;0x00, 0x00, 0x00, 0x00, 0x00, 0x00, 0x80, 0xE0,
;0xF8, 0xFE, 0xFF, 0xFF, 0xFF, 0xFF, 0xFF, 0xFF,
;0xFF, 0xFE, 0xF8, 0xE0, 0x80, 0x00, 0x00, 0x00,
;0x00, 0x00, 0x00, 0xF8, 0x48, 0x48, 0x49, 0x4E,
;0x5F, 0x4E, 0x49, 0x48, 0x48, 0x49, 0x4E, 0x5F,
;0x4E, 0x49, 0x48, 0x48, 0xF8, 0x00, 0x00, 0xFF,
;0xFF, 0x00, 0x00, 0x00, 0x00, 0x00, 0x00, 0x00,
;0x00, 0x07, 0x07, 0x07, 0x00, 0x00, 0x00, 0x07,
;0x07, 0x07, 0x00, 0x00, 0x00, 0x00, 0x01, 0x03,
;0x07, 0x06, 0x06, 0x03, 0x01, 0x00, 0x00, 0x03,
;0x07, 0x06, 0x06, 0x00, 0x00, 0x00, 0x00, 0x00,
;0x00, 0x7E, 0xFF, 0xFF, 0xFF, 0xFF, 0xFF, 0xFF,
;0xFF, 0xFF, 0xFF, 0xFF, 0xFF, 0xFF, 0xFF, 0xFF,
;0xFF, 0x7E, 0x00, 0x00, 0x00, 0x00, 0x00, 0xFF,
;0xE4, 0xD4, 0x4C, 0xE4, 0xF2, 0xEA, 0xE4, 0x54,
;0xCC, 0xE4, 0xF2, 0xEA, 0xE4, 0x54, 0xCC, 0xE4,
;0xFF, 0x00, 0x00, 0xFF, 0xFF, 0x80, 0x80, 0x80,
;0x80, 0x80, 0x80, 0x80, 0x80, 0x80, 0x80, 0x80,
;0x80, 0x80, 0x80, 0x80, 0x80, 0x80, 0x80, 0x80,
;0x80, 0x80, 0x80, 0x80, 0x80, 0x80, 0x80, 0x80,
;0x80, 0x80, 0x80, 0x80, 0x80, 0x80, 0x80, 0x80,
;0x80, 0x80, 0x80, 0x80, 0x80, 0x80, 0x80, 0x81,
;0x83, 0x87, 0x8F, 0x9F, 0x9F, 0x9F, 0x9F, 0x9F,
;0x8F, 0x87, 0x83, 0x81, 0x80, 0x80, 0x80, 0x80,
;0x80, 0x80, 0x80, 0x87, 0x85, 0x86, 0x87, 0x87,
;0x83, 0x81, 0x86, 0x87, 0x87, 0x87, 0x83, 0x81,
;0x86, 0x87, 0x87, 0x87, 0x87, 0x80, 0x80, 0xFF,
;#endif
;};
;
;#include "air_70.c"
;/****************************************************************************
;Image data created by the LCD Vision V1.05 font & image editor/converter
;(C) Copyright 2011-2013 Pavel Haiduc, HP InfoTech s.r.l.
;http://www.hpinfotech.com
;
;Graphic LCD controller: PCD8544 (Nokia 3310, 5110) 84x48
;Image width: 84 pixels
;Image height: 48 pixels
;Color depth: 1 bits/pixel
;Imported image file name: New image
;
;Exported monochrome image data size:
;532 bytes for displays organized as horizontal rows of bytes
;508 bytes for displays organized as rows of vertical bytes.
;****************************************************************************/
;
;flash unsigned char air_70[]=
;{
;/* Image width: 84 pixels */
;0x54, 0x00,
;/* Image height: 48 pixels */
;0x30, 0x00,
;#ifndef _GLCD_DATA_BYTEY_
;/* Image data for monochrome displays organized
;   as horizontal rows of bytes */
;0xFF, 0xFF, 0xFF, 0xFF, 0xFF, 0xFF, 0xFF, 0xFF,
;0xFF, 0xFF, 0x0F, 0x01, 0x00, 0x00, 0x00, 0x00,
;0x00, 0x00, 0x00, 0x00, 0x00, 0x08, 0x01, 0x8C,
;0x7D, 0x30, 0x9B, 0x8D, 0xED, 0xB3, 0xDF, 0x0C,
;0x08, 0x01, 0x9E, 0xCD, 0x30, 0x9B, 0xDD, 0x6D,
;0xB6, 0xDF, 0x0C, 0x08, 0x01, 0xB3, 0xCD, 0x30,
;0x9B, 0xFD, 0x6D, 0x36, 0xC6, 0x0C, 0x08, 0x01,
;0xBF, 0x7D, 0xF0, 0x9B, 0xAD, 0x6D, 0x36, 0xC6,
;0x0C, 0x08, 0x01, 0xBF, 0x1D, 0xF0, 0x9B, 0x8D,
;0x6D, 0x36, 0x86, 0x07, 0x08, 0x01, 0xB3, 0x3D,
;0x30, 0x9B, 0x8D, 0x6D, 0x36, 0x06, 0x03, 0x08,
;0x01, 0xB3, 0x6D, 0x30, 0x9B, 0x8D, 0x6D, 0x36,
;0x06, 0x03, 0x08, 0x01, 0xB3, 0xCD, 0x30, 0xF3,
;0x8C, 0xED, 0x33, 0x06, 0x03, 0x08, 0x01, 0x00,
;0x00, 0x00, 0x00, 0x00, 0x00, 0x00, 0x00, 0x00,
;0x08, 0x01, 0x00, 0x00, 0x00, 0x00, 0x00, 0x00,
;0x00, 0x00, 0x00, 0x08, 0x01, 0x00, 0x00, 0x00,
;0x00, 0x00, 0x00, 0x00, 0x00, 0x00, 0x08, 0x01,
;0x00, 0x00, 0x00, 0x00, 0x00, 0x00, 0x00, 0x00,
;0x00, 0x08, 0x01, 0x00, 0x00, 0x00, 0x00, 0x00,
;0x00, 0x00, 0x00, 0x00, 0x08, 0x01, 0x00, 0x00,
;0x00, 0x00, 0x80, 0x00, 0x00, 0x00, 0x00, 0x08,
;0x01, 0x00, 0x00, 0x00, 0x00, 0x80, 0x00, 0x20,
;0x00, 0x00, 0x08, 0x01, 0x00, 0x00, 0x00, 0x00,
;0x80, 0x00, 0x20, 0x00, 0x00, 0x08, 0x01, 0x00,
;0x00, 0x38, 0x01, 0xC0, 0x01, 0x20, 0x00, 0x00,
;0x08, 0x01, 0x00, 0x00, 0x28, 0x01, 0xC0, 0x01,
;0x70, 0x00, 0x00, 0x08, 0x01, 0x00, 0x00, 0x28,
;0x01, 0xE0, 0x03, 0x70, 0x00, 0x00, 0x08, 0x01,
;0x00, 0x00, 0xA8, 0x00, 0xE0, 0x03, 0xF8, 0x00,
;0x00, 0x08, 0x01, 0x00, 0x00, 0xB8, 0x00, 0xF0,
;0x07, 0xF8, 0x00, 0x00, 0x08, 0x01, 0x00, 0x00,
;0x40, 0x07, 0xF0, 0x07, 0x74, 0x01, 0x00, 0x08,
;0xC1, 0x7F, 0x70, 0x40, 0x05, 0xF8, 0x0F, 0x24,
;0x01, 0x00, 0x08, 0xC1, 0x7F, 0xFC, 0x41, 0x05,
;0xF8, 0x0F, 0x02, 0x02, 0x00, 0x08, 0x01, 0x70,
;0xDC, 0x21, 0x05, 0xF8, 0x0F, 0x02, 0x02, 0x00,
;0x08, 0x01, 0x38, 0x8E, 0x23, 0x07, 0xF0, 0x07,
;0x01, 0x04, 0x00, 0x08, 0x01, 0x1C, 0x8E, 0x03,
;0x00, 0xE0, 0x03, 0x01, 0x08, 0x00, 0x08, 0x01,
;0x0E, 0x8E, 0x03, 0x00, 0x00, 0x80, 0x00, 0x08,
;0x00, 0x08, 0x01, 0x0E, 0x8E, 0x03, 0x00, 0x00,
;0x80, 0x00, 0x10, 0x00, 0x08, 0x01, 0x07, 0x8E,
;0x03, 0x00, 0x00, 0x40, 0x00, 0x10, 0x00, 0x08,
;0x01, 0x07, 0x8E, 0x03, 0x00, 0x00, 0x40, 0x00,
;0x20, 0x10, 0x08, 0x01, 0x07, 0x8E, 0x03, 0x00,
;0x00, 0x20, 0x00, 0x20, 0x10, 0x08, 0x81, 0x03,
;0x8E, 0x03, 0x00, 0x00, 0x20, 0x00, 0x20, 0x10,
;0x08, 0x81, 0x03, 0xDC, 0x01, 0x00, 0x00, 0x20,
;0x00, 0x20, 0x38, 0x08, 0x81, 0x03, 0xFC, 0x01,
;0x00, 0x00, 0x20, 0x00, 0x20, 0x78, 0x08, 0x81,
;0x03, 0x70, 0x00, 0x00, 0x00, 0x20, 0x00, 0x20,
;0x7C, 0x08, 0x01, 0x00, 0x00, 0x00, 0x00, 0x00,
;0x20, 0x00, 0x20, 0x7C, 0x08, 0x01, 0x00, 0x00,
;0x00, 0x00, 0x00, 0x40, 0x00, 0x10, 0xFE, 0x08,
;0x01, 0x00, 0x00, 0x00, 0x00, 0x00, 0x80, 0x00,
;0x08, 0xFE, 0x08, 0x01, 0x00, 0x00, 0x00, 0x00,
;0x00, 0x00, 0x01, 0x04, 0xFF, 0x09, 0x01, 0x00,
;0x00, 0x00, 0x00, 0x00, 0x00, 0x02, 0x02, 0xFF,
;0x09, 0x01, 0x00, 0x00, 0x00, 0x00, 0x00, 0x00,
;0x04, 0x01, 0xFF, 0x09, 0x01, 0x00, 0x00, 0x00,
;0x00, 0x00, 0x00, 0xF8, 0x00, 0xFE, 0x08, 0x01,
;0x00, 0x00, 0x00, 0x00, 0x00, 0x00, 0x00, 0x00,
;0x7C, 0x08, 0x01, 0x00, 0x00, 0x00, 0x00, 0x00,
;0x00, 0x00, 0x00, 0x00, 0x08, 0xFF, 0xFF, 0xFF,
;0xFF, 0xFF, 0xFF, 0xFF, 0xFF, 0xFF, 0xFF, 0x0F,
;#else
;/* Image data for monochrome displays organized
;   as rows of vertical bytes */
;0xFF, 0x01, 0x01, 0x01, 0x01, 0x01, 0x01, 0x01,
;0xF1, 0xF9, 0x6D, 0x6D, 0xF9, 0xF1, 0x01, 0xFD,
;0xFD, 0x01, 0xFD, 0xFD, 0xE5, 0xA5, 0x3D, 0x19,
;0x01, 0x01, 0x01, 0x01, 0xFD, 0xFD, 0x61, 0x61,
;0xFD, 0xFD, 0x01, 0xFD, 0xFD, 0x01, 0x01, 0xFD,
;0xFD, 0x01, 0xFD, 0xFD, 0x19, 0x31, 0x19, 0xFD,
;0xFD, 0x01, 0xFD, 0xFD, 0x01, 0xFD, 0xFD, 0x05,
;0x05, 0xFD, 0xF9, 0x01, 0xFD, 0xFD, 0x01, 0x0D,
;0x0D, 0xFD, 0xFD, 0x0D, 0x0D, 0x01, 0x3D, 0x7D,
;0xC1, 0xC1, 0x7D, 0x3D, 0x01, 0x01, 0x01, 0x01,
;0x01, 0x01, 0x01, 0xFF, 0xFF, 0x00, 0x00, 0x00,
;0x00, 0x00, 0x00, 0x00, 0x03, 0x03, 0x00, 0x00,
;0x03, 0x03, 0x00, 0x03, 0x03, 0x00, 0x03, 0x03,
;0x00, 0x01, 0x03, 0x02, 0x00, 0x00, 0x00, 0x00,
;0x03, 0x03, 0x00, 0x00, 0x03, 0x03, 0x00, 0x01,
;0x03, 0x02, 0x02, 0x03, 0x01, 0x00, 0x03, 0x03,
;0x00, 0x00, 0x00, 0x83, 0x03, 0x00, 0x03, 0x03,
;0x00, 0x03, 0x03, 0x02, 0x02, 0x03, 0x01, 0x00,
;0x03, 0x03, 0x00, 0x00, 0x00, 0x03, 0x03, 0x00,
;0x00, 0x00, 0x00, 0x00, 0x03, 0x03, 0x00, 0x00,
;0x00, 0x00, 0x00, 0x00, 0x00, 0x00, 0x00, 0xFF,
;0xFF, 0x00, 0x00, 0x00, 0x00, 0x00, 0x00, 0x00,
;0x00, 0x00, 0x00, 0x00, 0x00, 0x00, 0x00, 0x00,
;0x00, 0x00, 0x00, 0x00, 0x00, 0x00, 0x00, 0x00,
;0x00, 0x00, 0x00, 0x7C, 0x44, 0x7C, 0x80, 0x60,
;0x9C, 0x80, 0x80, 0x00, 0x00, 0x00, 0x00, 0x00,
;0x00, 0x00, 0x00, 0x00, 0xC0, 0xF0, 0xFC, 0xFF,
;0xFC, 0xF0, 0xC0, 0x00, 0x00, 0x00, 0x00, 0x00,
;0x00, 0x00, 0x80, 0x60, 0xF8, 0xFF, 0xF8, 0x60,
;0x80, 0x00, 0x00, 0x00, 0x00, 0x00, 0x00, 0x00,
;0x00, 0x00, 0x00, 0x00, 0x00, 0x00, 0x00, 0x00,
;0x00, 0x00, 0x00, 0xFF, 0xFF, 0x00, 0x00, 0x00,
;0x00, 0x00, 0x03, 0x03, 0x83, 0xE3, 0xF3, 0x7B,
;0x1F, 0x0F, 0x07, 0x00, 0x00, 0xF8, 0xFE, 0xFE,
;0x07, 0x03, 0x07, 0xFE, 0xFE, 0xF8, 0x00, 0x00,
;0x00, 0x0C, 0x03, 0x00, 0x0F, 0x08, 0x0F, 0x00,
;0x00, 0x00, 0x00, 0x00, 0x00, 0x00, 0x00, 0x07,
;0x0F, 0x1F, 0x1F, 0x1F, 0x1F, 0x1F, 0x0F, 0x07,
;0x00, 0x00, 0x80, 0x60, 0x18, 0x06, 0x01, 0x00,
;0x00, 0x01, 0x00, 0x00, 0x01, 0x06, 0x08, 0x30,
;0xC0, 0x00, 0x00, 0x00, 0x00, 0x00, 0x00, 0x00,
;0x00, 0x00, 0x00, 0x00, 0x00, 0x00, 0x00, 0xFF,
;0xFF, 0x00, 0x00, 0x00, 0x00, 0x00, 0x00, 0x3C,
;0x3F, 0x3F, 0x03, 0x00, 0x00, 0x00, 0x00, 0x00,
;0x00, 0x07, 0x1F, 0x1F, 0x38, 0x30, 0x38, 0x1F,
;0x1F, 0x07, 0x00, 0x00, 0x00, 0x00, 0x00, 0x00,
;0x00, 0x00, 0x00, 0x00, 0x00, 0x00, 0x00, 0x00,
;0x00, 0x00, 0x00, 0x00, 0x00, 0x00, 0x00, 0x00,
;0x00, 0x00, 0x00, 0x00, 0x00, 0x7E, 0x81, 0x00,
;0x00, 0x00, 0x00, 0x00, 0x00, 0x00, 0x00, 0x00,
;0x00, 0x00, 0x00, 0x00, 0x80, 0x7F, 0x00, 0x00,
;0x00, 0x80, 0xE0, 0xF8, 0xFF, 0xF8, 0xF0, 0x80,
;0x00, 0x00, 0x00, 0xFF, 0xFF, 0x80, 0x80, 0x80,
;0x80, 0x80, 0x80, 0x80, 0x80, 0x80, 0x80, 0x80,
;0x80, 0x80, 0x80, 0x80, 0x80, 0x80, 0x80, 0x80,
;0x80, 0x80, 0x80, 0x80, 0x80, 0x80, 0x80, 0x80,
;0x80, 0x80, 0x80, 0x80, 0x80, 0x80, 0x80, 0x80,
;0x80, 0x80, 0x80, 0x80, 0x80, 0x80, 0x80, 0x80,
;0x80, 0x80, 0x80, 0x80, 0x80, 0x80, 0x80, 0x80,
;0x80, 0x80, 0x80, 0x81, 0x82, 0x84, 0x88, 0x90,
;0x90, 0x90, 0x90, 0x90, 0x88, 0x84, 0x82, 0x81,
;0x80, 0x80, 0x80, 0x80, 0x8E, 0x9F, 0xBF, 0xBF,
;0xBF, 0xBF, 0xBF, 0x9F, 0x8E, 0x80, 0x80, 0xFF,
;#endif
;};
;
;#include "temp.c"
;/****************************************************************************
;Image data created by the LCD Vision V1.05 font & image editor/converter
;(C) Copyright 2011-2013 Pavel Haiduc, HP InfoTech s.r.l.
;http://www.hpinfotech.com
;
;Graphic LCD controller: PCD8544 (Nokia 3310, 5110) 84x48
;Image width: 84 pixels
;Image height: 48 pixels
;Color depth: 1 bits/pixel
;Imported image file name: New image
;
;Exported monochrome image data size:
;532 bytes for displays organized as horizontal rows of bytes
;508 bytes for displays organized as rows of vertical bytes.
;****************************************************************************/
;
;flash unsigned char temp[]=
;{
;/* Image width: 84 pixels */
;0x54, 0x00,
;/* Image height: 48 pixels */
;0x30, 0x00,
;#ifndef _GLCD_DATA_BYTEY_
;/* Image data for monochrome displays organized
;   as horizontal rows of bytes */
;0xFF, 0xFF, 0xFF, 0xFF, 0xFF, 0xFF, 0xFF, 0xFF,
;0xFF, 0xFF, 0x0F, 0x01, 0x00, 0x00, 0x00, 0x00,
;0x00, 0x00, 0x00, 0x00, 0x00, 0x08, 0x01, 0x00,
;0x00, 0x00, 0x00, 0x00, 0x00, 0x00, 0x00, 0x00,
;0x08, 0x01, 0x00, 0x00, 0x00, 0x00, 0x00, 0x00,
;0x00, 0x00, 0x00, 0x08, 0xF9, 0x7D, 0xC7, 0x7D,
;0xBE, 0x0F, 0xC7, 0x6F, 0xF6, 0xF9, 0x08, 0x61,
;0x0C, 0xC7, 0xCD, 0x86, 0x19, 0x07, 0x63, 0x36,
;0x1B, 0x08, 0x61, 0x0C, 0xEF, 0xCD, 0x86, 0x99,
;0x0D, 0x63, 0x36, 0x1B, 0x08, 0x61, 0x7C, 0xEF,
;0xCD, 0xBE, 0x99, 0x0D, 0x63, 0x36, 0xFB, 0x08,
;0x61, 0x0C, 0xAB, 0x7D, 0x86, 0x8F, 0x0D, 0x63,
;0xF6, 0x19, 0x08, 0x61, 0x0C, 0xBB, 0x0D, 0x86,
;0xCD, 0x1F, 0x63, 0xB6, 0x19, 0x08, 0x61, 0x0C,
;0xBB, 0x0D, 0x86, 0xD9, 0x18, 0x63, 0x36, 0x1B,
;0x08, 0x61, 0x7C, 0x93, 0x0D, 0xBE, 0xF1, 0x18,
;0xC3, 0x33, 0xFE, 0x08, 0x01, 0x00, 0x00, 0x00,
;0x00, 0x00, 0x00, 0x00, 0x00, 0x00, 0x08, 0x01,
;0x00, 0x00, 0x00, 0x00, 0x00, 0x00, 0x00, 0x00,
;0x00, 0x08, 0x01, 0x00, 0x00, 0x00, 0x00, 0x00,
;0x00, 0x00, 0x00, 0x00, 0x08, 0x01, 0x00, 0x00,
;0x00, 0x00, 0x00, 0x00, 0x00, 0x00, 0x00, 0x08,
;0x01, 0x06, 0x00, 0x00, 0x00, 0x00, 0x00, 0x00,
;0x00, 0x00, 0x08, 0x01, 0x09, 0x00, 0x00, 0x00,
;0x00, 0x00, 0x00, 0x00, 0x00, 0x08, 0x81, 0x10,
;0x00, 0x00, 0x00, 0x00, 0x00, 0x00, 0x00, 0x00,
;0x08, 0x81, 0x10, 0x00, 0x00, 0x00, 0x00, 0x00,
;0x00, 0x00, 0x00, 0x08, 0x81, 0x10, 0x00, 0x00,
;0x00, 0x00, 0x00, 0x00, 0x00, 0x00, 0x08, 0x81,
;0x1C, 0x00, 0x00, 0x00, 0x00, 0x00, 0x00, 0x00,
;0x00, 0x08, 0x81, 0x10, 0x0F, 0x00, 0x00, 0x00,
;0x00, 0x1C, 0x00, 0x00, 0x08, 0x81, 0x1F, 0x00,
;0x00, 0x00, 0x00, 0x00, 0x36, 0x00, 0x00, 0x08,
;0x81, 0x1F, 0x00, 0x00, 0x00, 0x00, 0x00, 0x22,
;0x00, 0x00, 0x08, 0x81, 0x1F, 0x00, 0x00, 0x00,
;0x00, 0x00, 0x22, 0x00, 0x00, 0x08, 0x81, 0x1F,
;0x06, 0x00, 0x00, 0x00, 0x00, 0x36, 0x00, 0x00,
;0x08, 0x81, 0x1F, 0x00, 0x00, 0xFC, 0x80, 0x0F,
;0x1C, 0xE0, 0x03, 0x08, 0x81, 0x1F, 0x00, 0x00,
;0xFE, 0xE1, 0x1F, 0x00, 0xF8, 0x0F, 0x08, 0x81,
;0x1F, 0x00, 0x00, 0xCF, 0xE3, 0x3C, 0x00, 0xFC,
;0x1F, 0x08, 0x81, 0x1F, 0x0F, 0x00, 0x87, 0x73,
;0x08, 0x00, 0x3C, 0x3C, 0x08, 0x81, 0x1F, 0x00,
;0x00, 0x80, 0x73, 0x00, 0x00, 0x1E, 0x18, 0x08,
;0xC1, 0x7F, 0x00, 0x00, 0x80, 0x73, 0x0F, 0x00,
;0x0E, 0x00, 0x08, 0xE1, 0xFF, 0x00, 0x00, 0xC0,
;0xF1, 0x1F, 0x00, 0x0E, 0x00, 0x08, 0xF1, 0xFF,
;0x01, 0x00, 0xE0, 0xF1, 0x1C, 0x00, 0x0E, 0x00,
;0x08, 0xF1, 0xFF, 0x01, 0x00, 0xF0, 0x70, 0x38,
;0x00, 0x0E, 0x00, 0x08, 0xF9, 0xFF, 0x03, 0x00,
;0x78, 0x70, 0x38, 0x00, 0x0E, 0x00, 0x08, 0xF9,
;0xFF, 0x03, 0x00, 0x3C, 0x70, 0x38, 0x00, 0x1E,
;0x18, 0x08, 0xF9, 0xFF, 0x03, 0x00, 0x1C, 0x70,
;0x38, 0x00, 0x3C, 0x3C, 0x08, 0xF9, 0xFF, 0x03,
;0x00, 0x0E, 0xE0, 0x1C, 0x00, 0xFC, 0x1F, 0x08,
;0xF9, 0xFF, 0x03, 0x00, 0xFF, 0xE3, 0x1F, 0x00,
;0xF8, 0x0F, 0x08, 0xF1, 0xFF, 0x01, 0x00, 0xFF,
;0x83, 0x07, 0x00, 0xE0, 0x03, 0x08, 0xF1, 0xFF,
;0x01, 0x00, 0x00, 0x00, 0x00, 0x00, 0x00, 0x00,
;0x08, 0xE1, 0xFF, 0x00, 0x00, 0x00, 0x00, 0x00,
;0x00, 0x00, 0x00, 0x08, 0xC1, 0x7F, 0x00, 0x00,
;0x00, 0x00, 0x00, 0x00, 0x00, 0x00, 0x08, 0x01,
;0x1F, 0x00, 0x00, 0x00, 0x00, 0x00, 0x00, 0x00,
;0x00, 0x08, 0x01, 0x00, 0x00, 0x00, 0x00, 0x00,
;0x00, 0x00, 0x00, 0x00, 0x08, 0xFF, 0xFF, 0xFF,
;0xFF, 0xFF, 0xFF, 0xFF, 0xFF, 0xFF, 0xFF, 0x0F,
;#else
;/* Image data for monochrome displays organized
;   as rows of vertical bytes */
;0xFF, 0x01, 0x01, 0x11, 0x11, 0xF1, 0xF1, 0x11,
;0x11, 0x01, 0xF1, 0xF1, 0x91, 0x91, 0x91, 0x01,
;0xF1, 0xF1, 0xF1, 0xC1, 0x01, 0xC1, 0xF1, 0xF1,
;0xF1, 0x01, 0xF1, 0xF1, 0x11, 0x11, 0xF1, 0xE1,
;0x01, 0xF1, 0xF1, 0x91, 0x91, 0x91, 0x01, 0xF1,
;0xF1, 0x11, 0x11, 0xF1, 0xE1, 0x01, 0x01, 0xC1,
;0xF1, 0x31, 0xF1, 0xC1, 0x01, 0x01, 0x11, 0x11,
;0xF1, 0xF1, 0x11, 0x11, 0x01, 0xF1, 0xF1, 0x01,
;0x01, 0xF1, 0xF1, 0x01, 0xF1, 0xF1, 0x11, 0x11,
;0xF1, 0xE1, 0x01, 0xF1, 0xF1, 0x91, 0x91, 0x91,
;0x01, 0x01, 0x01, 0xFF, 0xFF, 0x00, 0x00, 0x00,
;0x00, 0x0F, 0x0F, 0x00, 0x00, 0x00, 0x0F, 0x0F,
;0x08, 0x08, 0x08, 0x00, 0x0F, 0x0F, 0x00, 0x07,
;0x0E, 0x07, 0x00, 0x0F, 0x0F, 0x00, 0x0F, 0x0F,
;0x01, 0x01, 0x01, 0x00, 0x00, 0x0F, 0x0F, 0x08,
;0x08, 0x08, 0x00, 0x0F, 0x0F, 0x01, 0x03, 0x07,
;0x0C, 0x08, 0x0E, 0x0F, 0x03, 0x02, 0x03, 0x0F,
;0x0E, 0x00, 0x00, 0x00, 0x0F, 0x0F, 0x00, 0x00,
;0x00, 0x07, 0x0F, 0x08, 0x08, 0x0F, 0x07, 0x00,
;0x0F, 0x0F, 0x01, 0x03, 0x07, 0x0C, 0x08, 0x0F,
;0x0F, 0x08, 0x08, 0x08, 0x00, 0x00, 0x00, 0xFF,
;0xFF, 0x00, 0x00, 0x00, 0x00, 0x00, 0x00, 0xFC,
;0x82, 0x81, 0xA1, 0xA2, 0xFC, 0x00, 0x00, 0x00,
;0x40, 0x40, 0x40, 0x40, 0x00, 0x00, 0x00, 0x00,
;0x00, 0x00, 0x00, 0x00, 0x00, 0x00, 0x00, 0x00,
;0x00, 0x00, 0x00, 0x00, 0x00, 0x00, 0x00, 0x00,
;0x00, 0x00, 0x00, 0x00, 0x00, 0x00, 0x00, 0x00,
;0x00, 0x00, 0x00, 0x00, 0x00, 0x00, 0x00, 0x00,
;0x00, 0x80, 0xC0, 0x40, 0xC0, 0x80, 0x00, 0x00,
;0x00, 0x00, 0x00, 0x00, 0x00, 0x00, 0x00, 0x00,
;0x00, 0x00, 0x00, 0x00, 0x00, 0x00, 0x00, 0x00,
;0x00, 0x00, 0x00, 0xFF, 0xFF, 0x00, 0x00, 0x00,
;0x00, 0x00, 0x00, 0xFF, 0xFF, 0xFF, 0xFF, 0xFF,
;0xFF, 0x00, 0x00, 0x00, 0x40, 0x44, 0x44, 0x40,
;0x00, 0x00, 0x00, 0x00, 0x00, 0x00, 0x00, 0x00,
;0x00, 0x00, 0x00, 0x00, 0x60, 0x70, 0x78, 0x38,
;0x18, 0x18, 0x38, 0xF8, 0xF0, 0xE0, 0x00, 0x00,
;0xC0, 0xF0, 0xF0, 0x38, 0x18, 0x18, 0x38, 0x78,
;0x30, 0x20, 0x00, 0x00, 0x00, 0x07, 0x0C, 0x08,
;0x0C, 0x07, 0x00, 0x00, 0x00, 0x80, 0xE0, 0xF0,
;0xF0, 0x78, 0x38, 0x38, 0x38, 0x38, 0x70, 0xF0,
;0xE0, 0x40, 0x00, 0x00, 0x00, 0x00, 0x00, 0xFF,
;0xFF, 0x00, 0x00, 0xF0, 0xFC, 0xFE, 0xFF, 0xFF,
;0xFF, 0xFF, 0xFF, 0xFF, 0xFF, 0xFF, 0xFF, 0xFE,
;0xFC, 0xF0, 0x00, 0x00, 0x00, 0x00, 0x00, 0x00,
;0x00, 0x00, 0x00, 0x00, 0x00, 0x00, 0x00, 0x00,
;0x00, 0x80, 0xE0, 0xF0, 0x78, 0x3C, 0x1E, 0x0F,
;0x07, 0x01, 0x00, 0x00, 0x7F, 0xFF, 0xFF, 0x86,
;0x03, 0x03, 0x87, 0xFF, 0xFE, 0x78, 0x00, 0x00,
;0x00, 0x00, 0x00, 0x00, 0x00, 0x00, 0x00, 0x00,
;0x00, 0x3F, 0xFF, 0xFF, 0xE0, 0xC0, 0x80, 0x80,
;0x80, 0x80, 0xC0, 0xE0, 0xE0, 0x40, 0x00, 0x00,
;0x00, 0x00, 0x00, 0xFF, 0xFF, 0x80, 0x80, 0x81,
;0x87, 0x8F, 0x9F, 0x9F, 0xBF, 0xBF, 0xBF, 0xBF,
;0xBF, 0x9F, 0x9F, 0x8F, 0x87, 0x81, 0x80, 0x80,
;0x80, 0x80, 0x80, 0x80, 0x80, 0x80, 0x80, 0x80,
;0x80, 0x80, 0x80, 0x80, 0x83, 0x83, 0x83, 0x83,
;0x83, 0x83, 0x83, 0x83, 0x83, 0x83, 0x80, 0x80,
;0x80, 0x81, 0x81, 0x83, 0x83, 0x83, 0x83, 0x81,
;0x81, 0x80, 0x80, 0x80, 0x80, 0x80, 0x80, 0x80,
;0x80, 0x80, 0x80, 0x80, 0x80, 0x80, 0x80, 0x81,
;0x81, 0x83, 0x83, 0x83, 0x83, 0x83, 0x81, 0x81,
;0x80, 0x80, 0x80, 0x80, 0x80, 0x80, 0x80, 0xFF,
;#endif
;};
;
;
;
;
;
;#include <font5x7.h>
;#include <rf.c>
;typedef struct
;{
;    int flag;
;    float a;
;    float b;
;    float c;
;    float d;
;}data;
;
;typedef struct
;{
;    int flag;
;    int light;
;    int humi;
;    int temp;
;    int sm;
;}station_info;
;
;typedef struct
;{
;    int analog_l;
;    int analog_r;
;    int digital_l;
;    int digital_r;
;}tay_cam_info;
;
;station_info station_receive;
;tay_cam_info tay_cam_receive;
;
;data data_receive;
;unsigned char data_receive_2;
;unsigned char result;
;
;void config();
;
;//-----------------------------TX Mode -----------------------------------------------//
;unsigned char SPI_RW_TX(unsigned char Buff);                                       //Function used for text moving
;void RF_Init_TX();                                                                 //Function allow to Initialize RF dev ...
;unsigned char RF_Write_TX(unsigned char Reg_Add, unsigned char Value);                      //Function to write a value  ...
;void RF_Write_Address_TX(unsigned char Address);                                   //Function to write TX address for pi ...
;void RF_Write_Address_2_TX(unsigned char Address);                                 //Function to write TX address for pi ...
;void RX_Mode_Active_TX();                                                          //Function to put nRF in RX mode
;void TX_Mode_Active_TX();                                                          //Function to put nRF in TX mode
;void RF_Config_TX();                                                               //Function to config the nRF
;void RF_TX_Send_TX(data send);                                                     //Function to send data Value to RX A ...
;void RF_TX_Send_2_TX(data send);                                                   //Function to send data Value to RX a ...
;
;
;//---------------------------------RX Mode----------------------------------------------//
;unsigned char SPI_RW_RX(unsigned char Buff);                                       //Function used for text moving
;unsigned char SPI_Read_RX(void);
;void RF_Init_RX();                                                                 //Function allow to Initialize RF dev ...
;void RF_Write_RX(unsigned char Reg_Add, unsigned char Value);                      //Function to write a value to a regi ...
;void RF_Command_RX(unsigned char command);                                         //Function to write a command
;void RF_Write_Address_RX(unsigned char Address1, unsigned char Address2, unsigned char Address3, unsigned char Address4) ...
;void RX_Mode_RX();                                                          //Function to put nRF in RX mode
;void RF_Config_RX();                                                               //Function to config the nRF
;void RF_Read_RX();                                                     //Function to read the data from RX FIFO
;void RF_Write2_RX(unsigned char Reg_Add, unsigned char Value);
;void RF_Write3_RX(unsigned char Reg_Add, unsigned char Value);
;void RF_Read_RX_2();
;
;void config()
; 0000 001E {

	.CSEG
_config:
; .FSTART _config
;CE=0;    // chip enable
	CBI  0x12,7
;CSN=1;   // Spi disable
	SBI  0x12,6
;SCK=0;   // Spi clock line init high
	CBI  0x12,5
;delay_us(10);
	__DELAY_USB 27
;RF_Write_RX(0x07,0b01111110);  // Clear flag
	LDI  R30,LOW(7)
	ST   -Y,R30
	LDI  R26,LOW(126)
	RCALL _RF_Write_RX
;RF_Command_RX(0b11100010);     //Flush RX
	LDI  R26,LOW(226)
	RCALL _RF_Command_RX
;RF_Write_TX(0x00,0b00011111);     //CONFIG 0x00
	LDI  R30,LOW(0)
	ST   -Y,R30
	LDI  R26,LOW(31)
	RCALL _RF_Write_TX
;delay_ms(2);
	LDI  R26,LOW(2)
	LDI  R27,0
	CALL _delay_ms
;RF_Write_TX(0x07,0b01111110);     // status
	LDI  R30,LOW(7)
	ST   -Y,R30
	LDI  R26,LOW(126)
	RCALL _RF_Write_TX
;RF_Write_TX(0x1D, 0b00000100);
	LDI  R30,LOW(29)
	ST   -Y,R30
	LDI  R26,LOW(4)
	RCALL _RF_Write_TX
;RF_Write_TX(0x05,0b00000010);     //RF_CH 0x05        Choose frequency channel
	LDI  R30,LOW(5)
	ST   -Y,R30
	LDI  R26,LOW(2)
	RCALL _RF_Write_TX
;}
	RET
; .FEND
;
;
;
;unsigned char SPI_RW_TX(unsigned char Buff){
_SPI_RW_TX:
; .FSTART _SPI_RW_TX
;    unsigned char bit_ctr;
;       for(bit_ctr=0;bit_ctr<8;bit_ctr++) // output 8-bit
	ST   -Y,R26
	ST   -Y,R17
;	Buff -> Y+1
;	bit_ctr -> R17
	LDI  R17,LOW(0)
_0xA:
	CPI  R17,8
	BRSH _0xB
;       {
;        MOSI = (Buff & 0x80);         // output 'uchar', MSB to MOSI
	LDD  R30,Y+1
	ANDI R30,LOW(0x80)
	BRNE _0xC
	CBI  0x12,4
	RJMP _0xD
_0xC:
	SBI  0x12,4
_0xD:
;        delay_us(5);
	CALL SUBOPT_0x0
;        Buff = (Buff << 1);           // shift next bit into MSB..
;        SCK = 1;                      // Set SCK high..
;        delay_us(5);
;        Buff |= MISO;                 // capture current MISO bit
;        SCK = 0;                      // ..then set SCK low again
;       }
	SUBI R17,-1
	RJMP _0xA
_0xB:
;    return(Buff);                     // return read uchar
	LDD  R30,Y+1
	LDD  R17,Y+0
	JMP  _0x2120003
;}
; .FEND
;
;void RF_Init_TX()                                                    //Function allow to Initialize RF device
;{
;    CE=1;
;    delay_us(700);
;    CE=0;
;    CSN=1;
;}
;
;unsigned char RF_Write_TX(unsigned char Reg_Add, unsigned char Value)         //Function to write a value to a register  ...
;{
_RF_Write_TX:
; .FSTART _RF_Write_TX
;
;    CSN=0;
	CALL SUBOPT_0x1
;	Reg_Add -> Y+1
;	Value -> Y+0
;    result = SPI_RW_TX(0b00100000|Reg_Add);
	RCALL _SPI_RW_TX
	MOV  R11,R30
;    SPI_RW_TX(Value);
	LD   R26,Y
	RCALL _SPI_RW_TX
;    CSN=1;
	CALL SUBOPT_0x2
;    delay_us(10);
;    return result;
	MOV  R30,R11
	JMP  _0x2120003
;}
; .FEND
;
;void RF_Write_Address_TX(unsigned char Address)                      //Function to write TX and RX address
;{
;    CSN=0;
;	Address -> Y+0
;    RF_Write_TX(0x03,0b00000011);
;    CSN=1;
;    delay_us(10);
;    CSN=0;
;    SPI_RW_TX(0b00100000|0x0A);
;    SPI_RW_TX(Address);
;    SPI_RW_TX(Address);
;    SPI_RW_TX(Address);
;    SPI_RW_TX(Address);
;    SPI_RW_TX(Address);
;    CSN=1;
;    delay_us(10);
;    CSN=0;
;    SPI_RW_TX(0b00100000|0x10);
;    SPI_RW_TX(Address);
;    SPI_RW_TX(Address);
;    SPI_RW_TX(Address);
;    SPI_RW_TX(Address);
;    SPI_RW_TX(Address);
;
;    CSN=1;
;    delay_us(10);
;}
;
;void RF_Write_Address_TX_2(unsigned char Address)                      //Function to write TX and RX address
;{
;    CSN=0;
;	Address -> Y+0
;    RF_Write_TX(0x03,0b00000011);
;    CSN=1;
;    delay_us(10);
;    CSN=0;
;    SPI_RW_TX(0b00100000|0x0A);
;    SPI_RW_TX(Address);
;    SPI_RW_TX(0x02);
;    SPI_RW_TX(0x02);
;    SPI_RW_TX(0x02);
;    SPI_RW_TX(0x02);
;    CSN=1;
;    delay_us(10);
;    CSN=0;
;    SPI_RW_TX(0b00100000|0x10);
;    SPI_RW_TX(Address);
;    SPI_RW_TX(0x02);
;    SPI_RW_TX(0x02);
;    SPI_RW_TX(0x02);
;    SPI_RW_TX(0x02);
;
;    CSN=1;
;    delay_us(10);
;}
;
;void RF_Mode_TX()                                             //Function to put nRF in TX mode
;{
;    CE=0;
;    RF_Write_TX(0x00,0b00011110);     //CONFIG 0x00
;}
;
;void RF_Config_TX()                                                  //Function to config the nRF
;{
;
;RF_Write_TX(0x1C,0b00000001);
;RF_Write_Address_TX(P_Add);
;RF_Write_TX(0x02,0b00000001);     //EX_RXADDR 0x02    enable data pipe 0;
;RF_Write_TX(0x01,0b00000001);     //EN_AA 0x01        enable auto-acknowledgment
;}
;
;void RF_Config_TX_2()                                                  //Function to config the nRF
;{
;
;RF_Write_TX(0x1C,0b00000001);
;RF_Write_Address_TX_2(P_Add);
;RF_Write_TX(0x02,0b00000001);     //EX_RXADDR 0x02    enable data pipe 0;
;RF_Write_TX(0x01,0b00000001);     //EN_AA 0x01        enable auto-acknowledgment
;}
;
;void RF_Command_TX(unsigned char command)                            //Function to write a command
;{
;    CSN=0;
;	command -> Y+0
;    SPI_RW_TX(command);
;    CSN=1;
;    delay_us(10);
;}
;
;void RF_Send_TX(station_info send)     //Function to send data Value to a specify RX Address
;{
;
;  RF_Write_Address_TX(P_Add);
;	send -> Y+0
;  CSN=1;
;  delay_us(10);
;  CSN=0;
;  SPI_RW_TX(0b11100001);
;  CSN=1;
;  delay_us(10);
;  CSN=0;
;  SPI_RW_TX(0b10100000);
;  SPI_RW_TX(send.flag);
;//  SPI_RW_TX(send.light);
;//  SPI_RW_TX(send.humi);
;//  SPI_RW_TX(send.temp);
;//  SPI_RW_TX(send.sm);
;  CSN=1;
;  CE=1;
;  delay_us(500);
;  CE=0;
;  RF_Write_TX(0x07,0b01111110);
;  RF_Write_Address_TX(P_Add);
;  RF_Command_TX(0b11100001);
;
;  /*status = RF_Write_TX(0x07,0b00111000); //0b00111000
;  tx_ok = status & 0b00010000;
;  return tx_ok; */
;}
;
;void RF_Send_TX_2(data send)     //Function to send data Value to a specify RX Address
;{
;
;  RF_Write_Address_TX_2(P_Add);
;	send -> Y+0
;  CSN=1;
;  delay_us(10);
;  CSN=0;
;  SPI_RW_TX(0b11100001);
;  CSN=1;
;  delay_us(10);
;  CSN=0;
;  SPI_RW_TX(0b10100000);
;  SPI_RW_TX(send.flag);
;  SPI_RW_TX(send.a);
;  SPI_RW_TX(send.b);
;  SPI_RW_TX(send.c);
;  SPI_RW_TX(send.d);
;  CSN=1;
;  CE=1;
;  delay_us(500);
;  CE=0;
;  RF_Write_TX(0x07,0b01111110);
;  RF_Write_Address_TX_2(P_Add);
;  RF_Command_TX(0b11100001);
;
;  /*status = RF_Write_TX(0x07,0b00111000); //0b00111000
;  tx_ok = status & 0b00010000;
;  return tx_ok; */
;}
;
;
;
;//--------------------------------------------RX function------------------------------------//
;unsigned char SPI_RW_RX(unsigned char Buff)
;{
_SPI_RW_RX:
; .FSTART _SPI_RW_RX
;    unsigned char bit_ctr;
;       for(bit_ctr=0;bit_ctr<8;bit_ctr++) // output 8-bit
	ST   -Y,R26
	ST   -Y,R17
;	Buff -> Y+1
;	bit_ctr -> R17
	LDI  R17,LOW(0)
_0x57:
	CPI  R17,8
	BRSH _0x58
;       {
;        MOSI = (Buff & 0x80);         // output 'uchar', MSB to MOSI
	LDD  R30,Y+1
	ANDI R30,LOW(0x80)
	BRNE _0x59
	CBI  0x12,4
	RJMP _0x5A
_0x59:
	SBI  0x12,4
_0x5A:
;        delay_us(5);
	CALL SUBOPT_0x0
;        Buff = (Buff << 1);           // shift next bit into MSB..
;        SCK = 1;                      // Set SCK high..
;        delay_us(5);
;        Buff |= MISO;                 // capture current MISO bit
;        SCK = 0;                      // ..then set SCK low again
;       }
	SUBI R17,-1
	RJMP _0x57
_0x58:
;    return(Buff);                     // return read uchar
	LDD  R30,Y+1
	LDD  R17,Y+0
	JMP  _0x2120003
;}
; .FEND
;
;unsigned char SPI_Read_RX(void)
;{   unsigned char Buff=0;
;    unsigned char bit_ctr;
;       for(bit_ctr=0;bit_ctr<8;bit_ctr++) // output 8-bit
;	Buff -> R17
;	bit_ctr -> R16
;       {
;        delay_us(5);
;        Buff = (Buff << 1);           // shift next bit into MSB..
;        SCK = 1;                      // Set SCK high..
;        delay_us(5);
;        Buff |= MISO;                 // capture current MISO bit
;        SCK = 0;                      // ..then set SCK low again
;       }
;    return(Buff);                     // return read uchar
;}
;
;void RF_Init_RX()                                                    //Function allow to Initialize RF device
;{
_RF_Init_RX:
; .FSTART _RF_Init_RX
;    CE=1;
	SBI  0x12,7
;    delay_us(700);
	__DELAY_USW 1400
;    CE=0;
	CBI  0x12,7
;    CSN=1;
	SBI  0x12,6
;}
	RET
; .FEND
;
;void RF_Write_RX(unsigned char Reg_Add, unsigned char Value)         //Function to write a value to a register address
;{
_RF_Write_RX:
; .FSTART _RF_Write_RX
;    CSN=0;
	CALL SUBOPT_0x1
;	Reg_Add -> Y+1
;	Value -> Y+0
;    SPI_RW_RX(0b00100000|Reg_Add);
	CALL SUBOPT_0x3
;    SPI_RW_RX(Value);
;    CSN=1;
	CALL SUBOPT_0x2
;    delay_us(10);
;}
	JMP  _0x2120003
; .FEND
;
;void RF_Write2_RX(unsigned char Reg_Add, unsigned char Value)         //Function to write a value to a register address
;{
_RF_Write2_RX:
; .FSTART _RF_Write2_RX
;    CSN=0;
	CALL SUBOPT_0x1
;	Reg_Add -> Y+1
;	Value -> Y+0
;    SPI_RW_RX(0b00100000|Reg_Add);
	CALL SUBOPT_0x3
;    SPI_RW_RX(Value);
;    SPI_RW_RX(Value);
	LD   R26,Y
	CALL SUBOPT_0x3
;    SPI_RW_RX(Value);
;    SPI_RW_RX(Value);
	LD   R26,Y
	CALL SUBOPT_0x3
;    SPI_RW_RX(Value);
;    CSN=1;
	CALL SUBOPT_0x2
;    delay_us(10);
;}
	JMP  _0x2120003
; .FEND
;
;void RF_Write3_RX(unsigned char Reg_Add, unsigned char Value)         //Function to write a value to a register address
;{
;    CSN=0;
;	Reg_Add -> Y+1
;	Value -> Y+0
;    SPI_RW_RX(0b00100000|Reg_Add);
;    SPI_RW_RX(Code_tay_cam2);
;    SPI_RW_RX(Code_tay_cam2);
;    SPI_RW_RX(Code_tay_cam2);
;    SPI_RW_RX(Code_tay_cam2);
;    SPI_RW_RX(Value);
;
;
;    CSN=1;
;    delay_us(10);
;}
;
;void RF_Command_RX(unsigned char command)                            //Function to write a command
;{
_RF_Command_RX:
; .FSTART _RF_Command_RX
;    CSN=0;
	ST   -Y,R26
;	command -> Y+0
	CBI  0x12,6
;    SPI_RW_RX(command);
	LD   R26,Y
	RCALL _SPI_RW_RX
;    CSN=1;
	CALL SUBOPT_0x2
;    delay_us(10);
;}
	JMP  _0x2120007
; .FEND
;
;void RF_Write_Address_RX(unsigned char Address1, unsigned char Address2, unsigned char Address3, unsigned char Address4) ...
;{
;    CSN=0;
;	Address1 -> Y+3
;	Address2 -> Y+2
;	Address3 -> Y+1
;	Address4 -> Y+0
;    RF_Write_RX(0x03,0b00000011);
;    CSN=1;
;    delay_us(10);
;    CSN=0;
;    RF_Write2_RX(0x0A, Address1);
;    RF_Write2_RX(0x10, Address1);
;
;    RF_Write3_RX(0x0B, Address2);
;    RF_Write3_RX(0x10, Address2);
;
;    RF_Write3_RX(0x0C, Address3);
;    RF_Write3_RX(0x10, Address3);
;
;    RF_Write3_RX(0x0D, Address4);
;    RF_Write3_RX(0x10, Address4);
;
;}
;
;void RF_Write_Address_RX_2(unsigned char Address1){
_RF_Write_Address_RX_2:
; .FSTART _RF_Write_Address_RX_2
;    CSN=0;
	ST   -Y,R26
;	Address1 -> Y+0
	CBI  0x12,6
;    RF_Write_RX(0x03,0b00000011);
	LDI  R30,LOW(3)
	ST   -Y,R30
	LDI  R26,LOW(3)
	RCALL _RF_Write_RX
;    CSN=1;
	CALL SUBOPT_0x2
;    delay_us(10);
;    CSN=0;
	CBI  0x12,6
;
;    RF_Write2_RX(0x0A, Address1);
	LDI  R30,LOW(10)
	ST   -Y,R30
	LDD  R26,Y+1
	RCALL _RF_Write2_RX
;    RF_Write2_RX(0x10, Address1);
	LDI  R30,LOW(16)
	ST   -Y,R30
	LDD  R26,Y+1
	RCALL _RF_Write2_RX
;}
	JMP  _0x2120007
; .FEND
;
;
;void RF_Mode_RX()                                             //Function to put nRF in RX mode
;{
;    RF_Write_RX(0x00,0b00011111);     //CONFIG 0x00
;    CE=1;
;}
;
;void RF_Config_RX()                                                  //Function to config the nRF
;{
;RF_Write_RX(0x1C,0b00001111);
;RF_Write_Address_RX(Code_tay_cam1, Code_tay_cam2, Code_tay_cam3, Code_tay_cam4);
;RF_Write_RX(0x02,0b00001111);     //EX_RXADDR 0x02    enable data pipe 0;
;RF_Write_RX(0x01,0b00001111);     //EN_AA 0x01        enable auto-acknowledgment
;}
;
;void RF_Config_RX_2(){
_RF_Config_RX_2:
; .FSTART _RF_Config_RX_2
;    RF_Write_RX(0x1C,0b00001111);
	LDI  R30,LOW(28)
	ST   -Y,R30
	LDI  R26,LOW(15)
	RCALL _RF_Write_RX
;    RF_Write_Address_RX_2(Code_tay_cam1);
	MOV  R26,R4
	RCALL _RF_Write_Address_RX_2
;    RF_Write_RX(0x02,0b00000001);     //EX_RXADDR 0x02    enable data pipe 0;
	LDI  R30,LOW(2)
	ST   -Y,R30
	LDI  R26,LOW(1)
	RCALL _RF_Write_RX
;    RF_Write_RX(0x01,0b00000001);     //EN_AA 0x01        enable auto-acknowledgment
	LDI  R30,LOW(1)
	ST   -Y,R30
	LDI  R26,LOW(1)
	RCALL _RF_Write_RX
;}
	RET
; .FEND
;
;void RF_Config_RX_3(){
;RF_Write_RX(0x11,0b00000001);     //RX_PW_P0 0x11     Payload size
;RF_Write_Address_RX_2(Code_tay_cam1);
;RF_Write_RX(0x02,0b00000001);     //EX_RXADDR 0x02    enable data pipe 0;
;RF_Write_RX(0x01,0b00000001);     //EN_AA 0x01        enable auto-acknowledgment
;RF_Write_RX(0x04,0b00000000);     //SETUP_RETR 0x04   Setup retry time
;}
;
;void RF_Read_RX()                                         //Function to read the data from RX FIFO
;{
;   CE=0;
;   CSN=1;
;   delay_us(10);
;   CSN=0;
;   SPI_RW_RX(0b01100001);
;   delay_us(10);
;   data_receive.flag = SPI_Read_RX();
;   data_receive.a = SPI_Read_RX();
;   data_receive.b = SPI_Read_RX();
;   data_receive.c = SPI_Read_RX();
;   data_receive.d = SPI_Read_RX();
;   CSN=1;
;   CE=1;
;   RF_Write_RX(0x07,0b01111110);  // Clear flag
;   RF_Command_RX(0b11100010);     //Flush RX
;}
;
;void RF_Read_RX_2(){
;    CE=0;
;    CSN=1;
;    delay_us(10);
;    CSN=0;
;    SPI_RW_RX(0b01100001);
;    delay_us(10);
;    tay_cam_receive.analog_l = SPI_Read_RX();
;    tay_cam_receive.analog_r = SPI_Read_RX();
;    tay_cam_receive.digital_l = SPI_Read_RX();
;    tay_cam_receive.digital_r = SPI_Read_RX();
;    CSN=1;
;    CE=1;
;    RF_Write_RX(0x07,0b01111110);  // Clear flag
;    RF_Command_RX(0b11100010);     //Flush RX
;}
;
;void RF_Read_RX_3()                                         //Function to read the data from RX FIFO
;{
;   CE=0;
;   CSN=1;
;   delay_us(10);
;   CSN=0;
;   SPI_RW_RX(0b01100001);
;   delay_us(10);
;   station_receive.flag = SPI_Read_RX();
;   station_receive.light = SPI_Read_RX();
;   station_receive.humi = SPI_Read_RX();
;   station_receive.temp = SPI_Read_RX();
;   station_receive.sm = SPI_Read_RX();
;   CSN=1;
;   CE=1;
;   RF_Write_RX(0x07,0b01111110);  // Clear flag
;   RF_Command_RX(0b11100010);     //Flush RX
;}
;#include <stdio.h>
;#include <stdlib.h>
;#include <big_letter_10x14.c>
;/****************************************************************************
;Font created by the LCD Vision V1.05 font & image editor/converter
;(C) Copyright 2011-2013 Pavel Haiduc, HP InfoTech s.r.l.
;http://www.hpinfotech.com
;
;Font name: big_letter_10x14
;The font is proportional (has variable width).
;Font height: 14 pixels
;First character: 0x20
;Last character: 0x7F
;
;Exported font data size:
;2788 bytes for displays organized as horizontal rows of bytes
;2016 bytes for displays organized as rows of vertical bytes.
;****************************************************************************/
;
;flash unsigned char big_letter_10x14[]=
;{
;0x00, /* Proportional font */
;0x0E, /* Font height */
;0x20, /* First character */
;0x60, /* Number of characters in font */
;
;/* Character widths */
;0x0A, 0x0A, 0x0A, 0x0A, 0x0A, 0x0A, 0x0A, 0x0A,
;0x0A, 0x0A, 0x0A, 0x0A, 0x0A, 0x0A, 0x0A, 0x0A,
;0x0A, 0x0A, 0x0A, 0x0A, 0x0A, 0x0A, 0x0A, 0x0A,
;0x0A, 0x0A, 0x0A, 0x0A, 0x0A, 0x0A, 0x0A, 0x0A,
;0x0A, 0x0A, 0x0A, 0x0A, 0x0A, 0x0A, 0x0A, 0x0A,
;0x0A, 0x0A, 0x0A, 0x0A, 0x09, 0x0A, 0x0A, 0x0A,
;0x0A, 0x0A, 0x0A, 0x0A, 0x0A, 0x0A, 0x0A, 0x0A,
;0x0A, 0x0A, 0x0A, 0x0A, 0x0A, 0x0A, 0x0A, 0x0A,
;0x0A, 0x0A, 0x0A, 0x0A, 0x0A, 0x0A, 0x0A, 0x0A,
;0x0A, 0x0A, 0x0A, 0x0A, 0x0A, 0x0A, 0x0A, 0x0A,
;0x0A, 0x0A, 0x0A, 0x0A, 0x0A, 0x0A, 0x09, 0x0A,
;0x0A, 0x0A, 0x0A, 0x0A, 0x0A, 0x0A, 0x0A, 0x0A,
;
;#ifndef _GLCD_DATA_BYTEY_
;/* Font data for displays organized as
;   horizontal rows of bytes */
;
;/* Code: 0x20, ASCII Character: ' ' */
;0x00, 0x00, 0x00, 0x00, 0x00, 0x00, 0x00, 0x00,
;0x00, 0x00, 0x00, 0x00, 0x00, 0x00, 0x00, 0x00,
;0x00, 0x00, 0x00, 0x00, 0x00, 0x00, 0x00, 0x00,
;0x00, 0x00, 0x00, 0x00,
;
;/* Code: 0x21, ASCII Character: '!' */
;0x00, 0x00, 0x00, 0x00, 0x00, 0x00, 0x00, 0x00,
;0x00, 0x00, 0x00, 0x00, 0x00, 0x00, 0x00, 0x00,
;0x00, 0x00, 0x00, 0x00, 0x00, 0x00, 0x00, 0x00,
;0x00, 0x00, 0x00, 0x00,
;
;/* Code: 0x22, ASCII Character: '"' */
;0x00, 0x00, 0x00, 0x00, 0x00, 0x00, 0x00, 0x00,
;0x00, 0x00, 0x00, 0x00, 0x00, 0x00, 0x00, 0x00,
;0x00, 0x00, 0x00, 0x00, 0x00, 0x00, 0x00, 0x00,
;0x00, 0x00, 0x00, 0x00,
;
;/* Code: 0x23, ASCII Character: '#' */
;0x00, 0x00, 0x00, 0x00, 0x00, 0x00, 0x00, 0x00,
;0x00, 0x00, 0x00, 0x00, 0x00, 0x00, 0x00, 0x00,
;0x00, 0x00, 0x00, 0x00, 0x00, 0x00, 0x00, 0x00,
;0x00, 0x00, 0x00, 0x00,
;
;/* Code: 0x24, ASCII Character: '$' */
;0x00, 0x00, 0x00, 0x00, 0x00, 0x00, 0x00, 0x00,
;0x00, 0x00, 0x00, 0x00, 0x00, 0x00, 0x00, 0x00,
;0x00, 0x00, 0x00, 0x00, 0x00, 0x00, 0x00, 0x00,
;0x00, 0x00, 0x00, 0x00,
;
;/* Code: 0x25, ASCII Character: '%' */
;0x00, 0x00, 0x00, 0x00, 0x00, 0x00, 0x00, 0x00,
;0x00, 0x00, 0x00, 0x00, 0x00, 0x00, 0x00, 0x00,
;0x00, 0x00, 0x00, 0x00, 0x00, 0x00, 0x00, 0x00,
;0x00, 0x00, 0x00, 0x00,
;
;/* Code: 0x26, ASCII Character: '&' */
;0x00, 0x00, 0x00, 0x00, 0x00, 0x00, 0x00, 0x00,
;0x00, 0x00, 0x00, 0x00, 0x00, 0x00, 0x00, 0x00,
;0x00, 0x00, 0x00, 0x00, 0x00, 0x00, 0x00, 0x00,
;0x00, 0x00, 0x00, 0x00,
;
;/* Code: 0x27, ASCII Character: ''' */
;0x00, 0x00, 0x00, 0x00, 0x00, 0x00, 0x00, 0x00,
;0x00, 0x00, 0x00, 0x00, 0x00, 0x00, 0x00, 0x00,
;0x00, 0x00, 0x00, 0x00, 0x00, 0x00, 0x00, 0x00,
;0x00, 0x00, 0x00, 0x00,
;
;/* Code: 0x28, ASCII Character: '(' */
;0x00, 0x00, 0x00, 0x00, 0x00, 0x00, 0x00, 0x00,
;0x00, 0x00, 0x00, 0x00, 0x00, 0x00, 0x00, 0x00,
;0x00, 0x00, 0x00, 0x00, 0x00, 0x00, 0x00, 0x00,
;0x00, 0x00, 0x00, 0x00,
;
;/* Code: 0x29, ASCII Character: ')' */
;0x00, 0x00, 0x00, 0x00, 0x00, 0x00, 0x00, 0x00,
;0x00, 0x00, 0x00, 0x00, 0x00, 0x00, 0x00, 0x00,
;0x00, 0x00, 0x00, 0x00, 0x00, 0x00, 0x00, 0x00,
;0x00, 0x00, 0x00, 0x00,
;
;/* Code: 0x2A, ASCII Character: '*' */
;0x00, 0x00, 0x00, 0x00, 0x00, 0x00, 0x00, 0x00,
;0x00, 0x00, 0x00, 0x00, 0x00, 0x00, 0x00, 0x00,
;0x00, 0x00, 0x00, 0x00, 0x00, 0x00, 0x00, 0x00,
;0x00, 0x00, 0x00, 0x00,
;
;/* Code: 0x2B, ASCII Character: '+' */
;0x00, 0x00, 0x00, 0x00, 0x00, 0x00, 0x00, 0x00,
;0x00, 0x00, 0x00, 0x00, 0x00, 0x00, 0x00, 0x00,
;0x00, 0x00, 0x00, 0x00, 0x00, 0x00, 0x00, 0x00,
;0x00, 0x00, 0x00, 0x00,
;
;/* Code: 0x2C, ASCII Character: ',' */
;0x00, 0x00, 0x00, 0x00, 0x00, 0x00, 0x00, 0x00,
;0x00, 0x00, 0x00, 0x00, 0x00, 0x00, 0x00, 0x00,
;0x00, 0x00, 0x00, 0x00, 0x00, 0x00, 0x00, 0x00,
;0x00, 0x00, 0x00, 0x00,
;
;/* Code: 0x2D, ASCII Character: '-' */
;0x00, 0x00, 0x00, 0x00, 0x00, 0x00, 0x00, 0x00,
;0x00, 0x00, 0x00, 0x00, 0x00, 0x00, 0x00, 0x00,
;0x00, 0x00, 0x00, 0x00, 0x00, 0x00, 0x00, 0x00,
;0x00, 0x00, 0x00, 0x00,
;
;/* Code: 0x2E, ASCII Character: '.' */
;0x00, 0x00, 0x00, 0x00, 0x00, 0x00, 0x00, 0x00,
;0x00, 0x00, 0x00, 0x00, 0x00, 0x00, 0x00, 0x00,
;0x00, 0x00, 0x00, 0x00, 0x00, 0x00, 0x00, 0x00,
;0x00, 0x00, 0x00, 0x00,
;
;/* Code: 0x2F, ASCII Character: '/' */
;0x00, 0x00, 0x00, 0x00, 0x00, 0x00, 0x00, 0x00,
;0x00, 0x00, 0x00, 0x00, 0x00, 0x00, 0x00, 0x00,
;0x00, 0x00, 0x00, 0x00, 0x00, 0x00, 0x00, 0x00,
;0x00, 0x00, 0x00, 0x00,
;
;/* Code: 0x30, ASCII Character: '0' */
;0x78, 0x00, 0xFC, 0x00, 0x86, 0x01, 0x86, 0x01,
;0x86, 0x01, 0x86, 0x01, 0x86, 0x01, 0x86, 0x01,
;0x86, 0x01, 0x86, 0x01, 0x86, 0x01, 0x86, 0x01,
;0xFC, 0x00, 0x78, 0x00,
;
;/* Code: 0x31, ASCII Character: '1' */
;0x30, 0x00, 0x38, 0x00, 0x3C, 0x00, 0x36, 0x00,
;0x32, 0x00, 0x30, 0x00, 0x30, 0x00, 0x30, 0x00,
;0x30, 0x00, 0x30, 0x00, 0x30, 0x00, 0x30, 0x00,
;0xFE, 0x01, 0xFE, 0x01,
;
;/* Code: 0x32, ASCII Character: '2' */
;0x78, 0x00, 0xFC, 0x00, 0x86, 0x01, 0x86, 0x01,
;0x80, 0x01, 0x80, 0x01, 0xC0, 0x00, 0x60, 0x00,
;0x30, 0x00, 0x18, 0x00, 0x0C, 0x00, 0x06, 0x00,
;0xFE, 0x01, 0xFE, 0x01,
;
;/* Code: 0x33, ASCII Character: '3' */
;0x78, 0x00, 0xFC, 0x00, 0x86, 0x01, 0x86, 0x01,
;0x80, 0x01, 0x80, 0x01, 0xF8, 0x00, 0xF8, 0x00,
;0x80, 0x01, 0x80, 0x01, 0x86, 0x01, 0x86, 0x01,
;0xFC, 0x00, 0x78, 0x00,
;
;/* Code: 0x34, ASCII Character: '4' */
;0x80, 0x01, 0xC0, 0x01, 0xE0, 0x01, 0xB0, 0x01,
;0x98, 0x01, 0x8C, 0x01, 0x86, 0x01, 0xFE, 0x03,
;0xFE, 0x03, 0x80, 0x01, 0x80, 0x01, 0x80, 0x01,
;0x80, 0x01, 0x80, 0x01,
;
;/* Code: 0x35, ASCII Character: '5' */
;0xFE, 0x01, 0xFE, 0x01, 0x06, 0x00, 0x06, 0x00,
;0x06, 0x00, 0x06, 0x00, 0x7E, 0x00, 0xFE, 0x00,
;0x80, 0x01, 0x80, 0x01, 0x80, 0x01, 0x80, 0x01,
;0xFE, 0x00, 0x7E, 0x00,
;
;/* Code: 0x36, ASCII Character: '6' */
;0x78, 0x00, 0xFC, 0x00, 0x86, 0x01, 0x86, 0x01,
;0x06, 0x00, 0x06, 0x00, 0x7E, 0x00, 0xFE, 0x00,
;0x86, 0x01, 0x86, 0x01, 0x86, 0x01, 0x86, 0x01,
;0xFC, 0x00, 0x78, 0x00,
;
;/* Code: 0x37, ASCII Character: '7' */
;0xFE, 0x01, 0xFE, 0x01, 0x80, 0x01, 0x80, 0x01,
;0xC0, 0x00, 0xC0, 0x00, 0x60, 0x00, 0x60, 0x00,
;0x60, 0x00, 0x70, 0x00, 0x30, 0x00, 0x30, 0x00,
;0x30, 0x00, 0x30, 0x00,
;
;/* Code: 0x38, ASCII Character: '8' */
;0x78, 0x00, 0xFC, 0x00, 0x86, 0x01, 0x86, 0x01,
;0x86, 0x01, 0x86, 0x01, 0xFC, 0x00, 0xFC, 0x00,
;0x86, 0x01, 0x86, 0x01, 0x86, 0x01, 0x86, 0x01,
;0xFC, 0x00, 0x78, 0x00,
;
;/* Code: 0x39, ASCII Character: '9' */
;0x78, 0x00, 0xFC, 0x00, 0x86, 0x01, 0x86, 0x01,
;0x86, 0x01, 0x86, 0x01, 0xFE, 0x01, 0xFC, 0x01,
;0x80, 0x01, 0x80, 0x01, 0x86, 0x01, 0x86, 0x01,
;0xFC, 0x00, 0x78, 0x00,
;
;/* Code: 0x3A, ASCII Character: ':' */
;0x00, 0x00, 0x00, 0x00, 0x30, 0x00, 0x78, 0x00,
;0x78, 0x00, 0x30, 0x00, 0x00, 0x00, 0x00, 0x00,
;0x30, 0x00, 0x78, 0x00, 0x78, 0x00, 0x30, 0x00,
;0x00, 0x00, 0x00, 0x00,
;
;/* Code: 0x3B, ASCII Character: ';' */
;0x00, 0x00, 0x00, 0x00, 0x00, 0x00, 0x00, 0x00,
;0x00, 0x00, 0x00, 0x00, 0x00, 0x00, 0x00, 0x00,
;0x00, 0x00, 0x00, 0x00, 0x00, 0x00, 0x00, 0x00,
;0x00, 0x00, 0x00, 0x00,
;
;/* Code: 0x3C, ASCII Character: '<' */
;0x00, 0x00, 0x00, 0x00, 0x00, 0x00, 0x00, 0x00,
;0x00, 0x00, 0x00, 0x00, 0x00, 0x00, 0x00, 0x00,
;0x00, 0x00, 0x00, 0x00, 0x00, 0x00, 0x00, 0x00,
;0x00, 0x00, 0x00, 0x00,
;
;/* Code: 0x3D, ASCII Character: '=' */
;0x00, 0x00, 0x00, 0x00, 0x00, 0x00, 0x00, 0x00,
;0x00, 0x00, 0x00, 0x00, 0x00, 0x00, 0x00, 0x00,
;0x00, 0x00, 0x00, 0x00, 0x00, 0x00, 0x00, 0x00,
;0x00, 0x00, 0x00, 0x00,
;
;/* Code: 0x3E, ASCII Character: '>' */
;0x00, 0x00, 0x00, 0x00, 0x00, 0x00, 0x00, 0x00,
;0x00, 0x00, 0x00, 0x00, 0x00, 0x00, 0x00, 0x00,
;0x00, 0x00, 0x00, 0x00, 0x00, 0x00, 0x00, 0x00,
;0x00, 0x00, 0x00, 0x00,
;
;/* Code: 0x3F, ASCII Character: '?' */
;0x00, 0x00, 0x00, 0x00, 0x00, 0x00, 0x00, 0x00,
;0x00, 0x00, 0x00, 0x00, 0x00, 0x00, 0x00, 0x00,
;0x00, 0x00, 0x00, 0x00, 0x00, 0x00, 0x00, 0x00,
;0x00, 0x00, 0x00, 0x00,
;
;/* Code: 0x40, ASCII Character: '@' */
;0x00, 0x00, 0x00, 0x00, 0x00, 0x00, 0x00, 0x00,
;0x00, 0x00, 0x00, 0x00, 0x00, 0x00, 0x00, 0x00,
;0x00, 0x00, 0x00, 0x00, 0x00, 0x00, 0x00, 0x00,
;0x00, 0x00, 0x00, 0x00,
;
;/* Code: 0x41, ASCII Character: 'A' */
;0xFC, 0x00, 0xFE, 0x01, 0x03, 0x03, 0x03, 0x03,
;0x03, 0x03, 0x03, 0x03, 0x03, 0x03, 0xFF, 0x03,
;0xFF, 0x03, 0x03, 0x03, 0x03, 0x03, 0x03, 0x03,
;0x03, 0x03, 0x03, 0x03,
;
;/* Code: 0x42, ASCII Character: 'B' */
;0xFF, 0x00, 0xFF, 0x01, 0x03, 0x03, 0x03, 0x03,
;0x03, 0x03, 0x03, 0x03, 0xFF, 0x01, 0xFF, 0x01,
;0x03, 0x03, 0x03, 0x03, 0x03, 0x03, 0x03, 0x03,
;0xFF, 0x01, 0xFF, 0x00,
;
;/* Code: 0x43, ASCII Character: 'C' */
;0xF8, 0x00, 0xFC, 0x01, 0x06, 0x03, 0x03, 0x03,
;0x03, 0x00, 0x03, 0x00, 0x03, 0x00, 0x03, 0x00,
;0x03, 0x00, 0x03, 0x00, 0x03, 0x03, 0x06, 0x03,
;0xFC, 0x01, 0xF8, 0x00,
;
;/* Code: 0x44, ASCII Character: 'D' */
;0x7F, 0x00, 0xFF, 0x00, 0x83, 0x01, 0x03, 0x03,
;0x03, 0x03, 0x03, 0x03, 0x03, 0x03, 0x03, 0x03,
;0x03, 0x03, 0x03, 0x03, 0x03, 0x03, 0x83, 0x01,
;0xFF, 0x00, 0x7F, 0x00,
;
;/* Code: 0x45, ASCII Character: 'E' */
;0xFF, 0x03, 0xFF, 0x03, 0x03, 0x00, 0x03, 0x00,
;0x03, 0x00, 0x03, 0x00, 0xFF, 0x01, 0xFF, 0x01,
;0x03, 0x00, 0x03, 0x00, 0x03, 0x00, 0x03, 0x00,
;0xFF, 0x03, 0xFF, 0x03,
;
;/* Code: 0x46, ASCII Character: 'F' */
;0xFF, 0x03, 0xFF, 0x03, 0x03, 0x00, 0x03, 0x00,
;0x03, 0x00, 0x03, 0x00, 0xFF, 0x00, 0xFF, 0x00,
;0x03, 0x00, 0x03, 0x00, 0x03, 0x00, 0x03, 0x00,
;0x03, 0x00, 0x03, 0x00,
;
;/* Code: 0x47, ASCII Character: 'G' */
;0xF8, 0x00, 0xFC, 0x01, 0x06, 0x03, 0x03, 0x03,
;0x03, 0x00, 0x03, 0x00, 0x03, 0x00, 0xC3, 0x03,
;0xC3, 0x03, 0x03, 0x03, 0x03, 0x03, 0x06, 0x03,
;0xFC, 0x01, 0xF8, 0x00,
;
;/* Code: 0x48, ASCII Character: 'H' */
;0x03, 0x03, 0x03, 0x03, 0x03, 0x03, 0x03, 0x03,
;0x03, 0x03, 0x03, 0x03, 0xFF, 0x03, 0xFF, 0x03,
;0x03, 0x03, 0x03, 0x03, 0x03, 0x03, 0x03, 0x03,
;0x03, 0x03, 0x03, 0x03,
;
;/* Code: 0x49, ASCII Character: 'I' */
;0xFC, 0x00, 0xFC, 0x00, 0x30, 0x00, 0x30, 0x00,
;0x30, 0x00, 0x30, 0x00, 0x30, 0x00, 0x30, 0x00,
;0x30, 0x00, 0x30, 0x00, 0x30, 0x00, 0x30, 0x00,
;0xFC, 0x00, 0xFC, 0x00,
;
;/* Code: 0x4A, ASCII Character: 'J' */
;0xF8, 0x01, 0xF8, 0x01, 0x60, 0x00, 0x60, 0x00,
;0x60, 0x00, 0x60, 0x00, 0x60, 0x00, 0x60, 0x00,
;0x60, 0x00, 0x60, 0x00, 0x63, 0x00, 0x63, 0x00,
;0x3E, 0x00, 0x1C, 0x00,
;
;/* Code: 0x4B, ASCII Character: 'K' */
;0x03, 0x03, 0x83, 0x01, 0xC3, 0x00, 0x63, 0x00,
;0x33, 0x00, 0x1B, 0x00, 0x0F, 0x00, 0x0F, 0x00,
;0x1B, 0x00, 0x33, 0x00, 0x63, 0x00, 0xC3, 0x00,
;0x83, 0x01, 0x03, 0x03,
;
;/* Code: 0x4C, ASCII Character: 'L' */
;0x03, 0x00, 0x03, 0x00, 0x03, 0x00, 0x03, 0x00,
;0x03, 0x00, 0x03, 0x00, 0x03, 0x00, 0x03, 0x00,
;0x03, 0x00, 0x03, 0x00, 0x03, 0x00, 0x03, 0x00,
;0xFF, 0x01, 0xFF, 0x01,
;
;/* Code: 0x4D, ASCII Character: 'M' */
;0x03, 0x03, 0x03, 0x03, 0x87, 0x03, 0x87, 0x03,
;0xCF, 0x03, 0x4B, 0x03, 0x7B, 0x03, 0x33, 0x03,
;0x33, 0x03, 0x03, 0x03, 0x03, 0x03, 0x03, 0x03,
;0x03, 0x03, 0x03, 0x03,
;
;/* Code: 0x4E, ASCII Character: 'N' */
;0x03, 0x03, 0x07, 0x03, 0x07, 0x03, 0x0F, 0x03,
;0x0B, 0x03, 0x1B, 0x03, 0x13, 0x03, 0x33, 0x03,
;0x23, 0x03, 0x63, 0x03, 0x43, 0x03, 0xC3, 0x03,
;0x83, 0x03, 0x03, 0x03,
;
;/* Code: 0x4F, ASCII Character: 'O' */
;0x78, 0x00, 0xFC, 0x00, 0x86, 0x01, 0x03, 0x03,
;0x03, 0x03, 0x03, 0x03, 0x03, 0x03, 0x03, 0x03,
;0x03, 0x03, 0x03, 0x03, 0x03, 0x03, 0x86, 0x01,
;0xFC, 0x00, 0x78, 0x00,
;
;/* Code: 0x50, ASCII Character: 'P' */
;0xFF, 0x00, 0xFF, 0x01, 0x83, 0x03, 0x03, 0x03,
;0x03, 0x03, 0x03, 0x03, 0x83, 0x03, 0xFF, 0x01,
;0xFF, 0x00, 0x03, 0x00, 0x03, 0x00, 0x03, 0x00,
;0x03, 0x00, 0x03, 0x00,
;
;/* Code: 0x51, ASCII Character: 'Q' */
;0x78, 0x00, 0xFC, 0x00, 0x86, 0x01, 0x03, 0x03,
;0x03, 0x03, 0x03, 0x03, 0x03, 0x03, 0x03, 0x03,
;0x03, 0x03, 0x03, 0x03, 0x63, 0x03, 0xC6, 0x01,
;0xFC, 0x01, 0x78, 0x03,
;
;/* Code: 0x52, ASCII Character: 'R' */
;0x7F, 0x00, 0xFF, 0x00, 0xC3, 0x01, 0x83, 0x01,
;0x83, 0x01, 0xC3, 0x01, 0xFF, 0x00, 0x7F, 0x00,
;0x1F, 0x00, 0x3B, 0x00, 0x73, 0x00, 0xE3, 0x00,
;0xC3, 0x01, 0x83, 0x03,
;
;/* Code: 0x53, ASCII Character: 'S' */
;0xFC, 0x00, 0xFE, 0x01, 0x03, 0x03, 0x03, 0x03,
;0x03, 0x00, 0x03, 0x00, 0xFE, 0x00, 0xFC, 0x01,
;0x00, 0x03, 0x00, 0x03, 0x03, 0x03, 0x03, 0x03,
;0xFE, 0x01, 0xFC, 0x00,
;
;/* Code: 0x54, ASCII Character: 'T' */
;0xFF, 0x03, 0xFF, 0x03, 0x30, 0x00, 0x30, 0x00,
;0x30, 0x00, 0x30, 0x00, 0x30, 0x00, 0x30, 0x00,
;0x30, 0x00, 0x30, 0x00, 0x30, 0x00, 0x30, 0x00,
;0x30, 0x00, 0x30, 0x00,
;
;/* Code: 0x55, ASCII Character: 'U' */
;0x03, 0x03, 0x03, 0x03, 0x03, 0x03, 0x03, 0x03,
;0x03, 0x03, 0x03, 0x03, 0x03, 0x03, 0x03, 0x03,
;0x03, 0x03, 0x03, 0x03, 0x03, 0x03, 0x03, 0x03,
;0xFE, 0x01, 0xFC, 0x00,
;
;/* Code: 0x56, ASCII Character: 'V' */
;0x03, 0x03, 0x03, 0x03, 0x03, 0x03, 0x03, 0x03,
;0x03, 0x03, 0x03, 0x03, 0x03, 0x03, 0x03, 0x03,
;0x03, 0x03, 0x03, 0x03, 0x86, 0x01, 0xCC, 0x00,
;0x78, 0x00, 0x30, 0x00,
;
;/* Code: 0x57, ASCII Character: 'W' */
;0x03, 0x03, 0x03, 0x03, 0x03, 0x03, 0x03, 0x03,
;0x03, 0x03, 0x33, 0x03, 0x33, 0x03, 0x7B, 0x03,
;0x4B, 0x03, 0xCF, 0x03, 0x87, 0x03, 0x87, 0x03,
;0x03, 0x03, 0x03, 0x03,
;
;/* Code: 0x58, ASCII Character: 'X' */
;0x03, 0x03, 0x03, 0x03, 0x03, 0x03, 0x03, 0x03,
;0x86, 0x01, 0xCC, 0x00, 0x78, 0x00, 0xFC, 0x00,
;0xCE, 0x01, 0x87, 0x03, 0x03, 0x03, 0x03, 0x03,
;0x03, 0x03, 0x03, 0x03,
;
;/* Code: 0x59, ASCII Character: 'Y' */
;0x03, 0x03, 0x03, 0x03, 0x03, 0x03, 0x03, 0x03,
;0x03, 0x03, 0x86, 0x01, 0xCC, 0x00, 0x78, 0x00,
;0x30, 0x00, 0x30, 0x00, 0x30, 0x00, 0x30, 0x00,
;0x30, 0x00, 0x30, 0x00,
;
;/* Code: 0x5A, ASCII Character: 'Z' */
;0xFF, 0x03, 0xFF, 0x03, 0x00, 0x03, 0x80, 0x01,
;0xC0, 0x00, 0x60, 0x00, 0x30, 0x00, 0x18, 0x00,
;0x0C, 0x00, 0x06, 0x00, 0x03, 0x00, 0x03, 0x00,
;0xFF, 0x03, 0xFF, 0x03,
;
;/* Code: 0x5B, ASCII Character: '[' */
;0x00, 0x00, 0x00, 0x00, 0x00, 0x00, 0x00, 0x00,
;0x00, 0x00, 0x00, 0x00, 0x00, 0x00, 0x00, 0x00,
;0x00, 0x00, 0x00, 0x00, 0x00, 0x00, 0x00, 0x00,
;0x00, 0x00, 0x00, 0x00,
;
;/* Code: 0x5C, ASCII Character: '\' */
;0x00, 0x00, 0x00, 0x00, 0x00, 0x00, 0x00, 0x00,
;0x00, 0x00, 0x00, 0x00, 0x00, 0x00, 0x00, 0x00,
;0x00, 0x00, 0x00, 0x00, 0x00, 0x00, 0x00, 0x00,
;0x00, 0x00, 0x00, 0x00,
;
;/* Code: 0x5D, ASCII Character: ']' */
;0x00, 0x00, 0x00, 0x00, 0x00, 0x00, 0x00, 0x00,
;0x00, 0x00, 0x00, 0x00, 0x00, 0x00, 0x00, 0x00,
;0x00, 0x00, 0x00, 0x00, 0x00, 0x00, 0x00, 0x00,
;0x00, 0x00, 0x00, 0x00,
;
;/* Code: 0x5E, ASCII Character: '^' */
;0x00, 0x00, 0x00, 0x00, 0x00, 0x00, 0x00, 0x00,
;0x00, 0x00, 0x00, 0x00, 0x00, 0x00, 0x00, 0x00,
;0x00, 0x00, 0x00, 0x00, 0x00, 0x00, 0x00, 0x00,
;0x00, 0x00, 0x00, 0x00,
;
;/* Code: 0x5F, ASCII Character: '_' */
;0x00, 0x00, 0x00, 0x00, 0x00, 0x00, 0x00, 0x00,
;0x00, 0x00, 0x00, 0x00, 0x00, 0x00, 0x00, 0x00,
;0x00, 0x00, 0x00, 0x00, 0x00, 0x00, 0x00, 0x00,
;0x00, 0x00, 0x00, 0x00,
;
;/* Code: 0x60, ASCII Character: '`' */
;0x00, 0x00, 0x00, 0x00, 0x00, 0x00, 0x00, 0x00,
;0x00, 0x00, 0x00, 0x00, 0x00, 0x00, 0x00, 0x00,
;0x00, 0x00, 0x00, 0x00, 0x00, 0x00, 0x00, 0x00,
;0x00, 0x00, 0x00, 0x00,
;
;/* Code: 0x61, ASCII Character: 'a' */
;0x00, 0x00, 0x00, 0x00, 0x00, 0x00, 0x00, 0x00,
;0x00, 0x00, 0x00, 0x00, 0x00, 0x00, 0x00, 0x00,
;0x00, 0x00, 0x00, 0x00, 0x00, 0x00, 0x00, 0x00,
;0x00, 0x00, 0x00, 0x00,
;
;/* Code: 0x62, ASCII Character: 'b' */
;0x00, 0x00, 0x00, 0x00, 0x00, 0x00, 0x00, 0x00,
;0x00, 0x00, 0x00, 0x00, 0x00, 0x00, 0x00, 0x00,
;0x00, 0x00, 0x00, 0x00, 0x00, 0x00, 0x00, 0x00,
;0x00, 0x00, 0x00, 0x00,
;
;/* Code: 0x63, ASCII Character: 'c' */
;0x00, 0x00, 0x00, 0x00, 0x00, 0x00, 0x00, 0x00,
;0x00, 0x00, 0x00, 0x00, 0x00, 0x00, 0x00, 0x00,
;0x00, 0x00, 0x00, 0x00, 0x00, 0x00, 0x00, 0x00,
;0x00, 0x00, 0x00, 0x00,
;
;/* Code: 0x64, ASCII Character: 'd' */
;0x00, 0x00, 0x00, 0x00, 0x00, 0x00, 0x00, 0x00,
;0x00, 0x00, 0x00, 0x00, 0x00, 0x00, 0x00, 0x00,
;0x00, 0x00, 0x00, 0x00, 0x00, 0x00, 0x00, 0x00,
;0x00, 0x00, 0x00, 0x00,
;
;/* Code: 0x65, ASCII Character: 'e' */
;0x00, 0x00, 0x00, 0x00, 0x00, 0x00, 0x00, 0x00,
;0x00, 0x00, 0x00, 0x00, 0x00, 0x00, 0x00, 0x00,
;0x00, 0x00, 0x00, 0x00, 0x00, 0x00, 0x00, 0x00,
;0x00, 0x00, 0x00, 0x00,
;
;/* Code: 0x66, ASCII Character: 'f' */
;0x00, 0x00, 0x00, 0x00, 0x00, 0x00, 0x00, 0x00,
;0x00, 0x00, 0x00, 0x00, 0x00, 0x00, 0x00, 0x00,
;0x00, 0x00, 0x00, 0x00, 0x00, 0x00, 0x00, 0x00,
;0x00, 0x00, 0x00, 0x00,
;
;/* Code: 0x67, ASCII Character: 'g' */
;0x00, 0x00, 0x00, 0x00, 0x00, 0x00, 0x00, 0x00,
;0x00, 0x00, 0x00, 0x00, 0x00, 0x00, 0x00, 0x00,
;0x00, 0x00, 0x00, 0x00, 0x00, 0x00, 0x00, 0x00,
;0x00, 0x00, 0x00, 0x00,
;
;/* Code: 0x68, ASCII Character: 'h' */
;0x00, 0x00, 0x00, 0x00, 0x00, 0x00, 0x00, 0x00,
;0x00, 0x00, 0x00, 0x00, 0x00, 0x00, 0x00, 0x00,
;0x00, 0x00, 0x00, 0x00, 0x00, 0x00, 0x00, 0x00,
;0x00, 0x00, 0x00, 0x00,
;
;/* Code: 0x69, ASCII Character: 'i' */
;0x00, 0x00, 0x00, 0x00, 0x00, 0x00, 0x00, 0x00,
;0x00, 0x00, 0x00, 0x00, 0x00, 0x00, 0x00, 0x00,
;0x00, 0x00, 0x00, 0x00, 0x00, 0x00, 0x00, 0x00,
;0x00, 0x00, 0x00, 0x00,
;
;/* Code: 0x6A, ASCII Character: 'j' */
;0x00, 0x00, 0x00, 0x00, 0x00, 0x00, 0x00, 0x00,
;0x00, 0x00, 0x00, 0x00, 0x00, 0x00, 0x00, 0x00,
;0x00, 0x00, 0x00, 0x00, 0x00, 0x00, 0x00, 0x00,
;0x00, 0x00, 0x00, 0x00,
;
;/* Code: 0x6B, ASCII Character: 'k' */
;0x00, 0x00, 0x00, 0x00, 0x00, 0x00, 0x00, 0x00,
;0x00, 0x00, 0x00, 0x00, 0x00, 0x00, 0x00, 0x00,
;0x00, 0x00, 0x00, 0x00, 0x00, 0x00, 0x00, 0x00,
;0x00, 0x00, 0x00, 0x00,
;
;/* Code: 0x6C, ASCII Character: 'l' */
;0x00, 0x00, 0x00, 0x00, 0x00, 0x00, 0x00, 0x00,
;0x00, 0x00, 0x00, 0x00, 0x00, 0x00, 0x00, 0x00,
;0x00, 0x00, 0x00, 0x00, 0x00, 0x00, 0x00, 0x00,
;0x00, 0x00, 0x00, 0x00,
;
;/* Code: 0x6D, ASCII Character: 'm' */
;0x00, 0x00, 0x00, 0x00, 0x00, 0x00, 0x00, 0x00,
;0x00, 0x00, 0x00, 0x00, 0x00, 0x00, 0x00, 0x00,
;0x00, 0x00, 0x00, 0x00, 0x00, 0x00, 0x00, 0x00,
;0x00, 0x00, 0x00, 0x00,
;
;/* Code: 0x6E, ASCII Character: 'n' */
;0x00, 0x00, 0x00, 0x00, 0x00, 0x00, 0x00, 0x00,
;0x00, 0x00, 0x00, 0x00, 0x00, 0x00, 0x00, 0x00,
;0x00, 0x00, 0x00, 0x00, 0x00, 0x00, 0x00, 0x00,
;0x00, 0x00, 0x00, 0x00,
;
;/* Code: 0x6F, ASCII Character: 'o' */
;0x00, 0x00, 0x00, 0x00, 0x00, 0x00, 0x00, 0x00,
;0x00, 0x00, 0x00, 0x00, 0x00, 0x00, 0x00, 0x00,
;0x00, 0x00, 0x00, 0x00, 0x00, 0x00, 0x00, 0x00,
;0x00, 0x00, 0x00, 0x00,
;
;/* Code: 0x70, ASCII Character: 'p' */
;0x00, 0x00, 0x00, 0x00, 0x00, 0x00, 0x00, 0x00,
;0x00, 0x00, 0x00, 0x00, 0x00, 0x00, 0x00, 0x00,
;0x00, 0x00, 0x00, 0x00, 0x00, 0x00, 0x00, 0x00,
;0x00, 0x00, 0x00, 0x00,
;
;/* Code: 0x71, ASCII Character: 'q' */
;0x00, 0x00, 0x00, 0x00, 0x00, 0x00, 0x00, 0x00,
;0x00, 0x00, 0x00, 0x00, 0x00, 0x00, 0x00, 0x00,
;0x00, 0x00, 0x00, 0x00, 0x00, 0x00, 0x00, 0x00,
;0x00, 0x00, 0x00, 0x00,
;
;/* Code: 0x72, ASCII Character: 'r' */
;0x00, 0x00, 0x00, 0x00, 0x00, 0x00, 0x00, 0x00,
;0x00, 0x00, 0x00, 0x00, 0x00, 0x00, 0x00, 0x00,
;0x00, 0x00, 0x00, 0x00, 0x00, 0x00, 0x00, 0x00,
;0x00, 0x00, 0x00, 0x00,
;
;/* Code: 0x73, ASCII Character: 's' */
;0x00, 0x00, 0x00, 0x00, 0x00, 0x00, 0x00, 0x00,
;0x00, 0x00, 0x00, 0x00, 0x00, 0x00, 0x00, 0x00,
;0x00, 0x00, 0x00, 0x00, 0x00, 0x00, 0x00, 0x00,
;0x00, 0x00, 0x00, 0x00,
;
;/* Code: 0x74, ASCII Character: 't' */
;0x00, 0x00, 0x00, 0x00, 0x00, 0x00, 0x00, 0x00,
;0x00, 0x00, 0x00, 0x00, 0x00, 0x00, 0x00, 0x00,
;0x00, 0x00, 0x00, 0x00, 0x00, 0x00, 0x00, 0x00,
;0x00, 0x00, 0x00, 0x00,
;
;/* Code: 0x75, ASCII Character: 'u' */
;0x00, 0x00, 0x00, 0x00, 0x00, 0x00, 0x00, 0x00,
;0x00, 0x00, 0x00, 0x00, 0x00, 0x00, 0x00, 0x00,
;0x00, 0x00, 0x00, 0x00, 0x00, 0x00, 0x00, 0x00,
;0x00, 0x00, 0x00, 0x00,
;
;/* Code: 0x76, ASCII Character: 'v' */
;0x00, 0x00, 0x00, 0x00, 0x00, 0x00, 0x00, 0x00,
;0x00, 0x00, 0xFF, 0x01, 0xFE, 0x00, 0x7C, 0x00,
;0x38, 0x00, 0x10, 0x00, 0x00, 0x00, 0x00, 0x00,
;0x00, 0x00, 0x00, 0x00,
;
;/* Code: 0x77, ASCII Character: 'w' */
;0x00, 0x00, 0x00, 0x00, 0x00, 0x00, 0x00, 0x00,
;0x00, 0x00, 0x00, 0x00, 0x00, 0x00, 0x00, 0x00,
;0x00, 0x00, 0x00, 0x00, 0x00, 0x00, 0x00, 0x00,
;0x00, 0x00, 0x00, 0x00,
;
;/* Code: 0x78, ASCII Character: 'x' */
;0x00, 0x00, 0x00, 0x00, 0x00, 0x00, 0x00, 0x00,
;0x00, 0x00, 0x00, 0x00, 0x00, 0x00, 0x00, 0x00,
;0x00, 0x00, 0x00, 0x00, 0x00, 0x00, 0x00, 0x00,
;0x00, 0x00, 0x00, 0x00,
;
;/* Code: 0x79, ASCII Character: 'y' */
;0x00, 0x00, 0x00, 0x00, 0x00, 0x00, 0x00, 0x00,
;0x00, 0x00, 0x00, 0x00, 0x00, 0x00, 0x00, 0x00,
;0x00, 0x00, 0x00, 0x00, 0x00, 0x00, 0x00, 0x00,
;0x00, 0x00, 0x00, 0x00,
;
;/* Code: 0x7A, ASCII Character: 'z' */
;0x00, 0x00, 0x00, 0x00, 0x00, 0x00, 0x00, 0x00,
;0x00, 0x00, 0x00, 0x00, 0x00, 0x00, 0x00, 0x00,
;0x00, 0x00, 0x00, 0x00, 0x00, 0x00, 0x00, 0x00,
;0x00, 0x00, 0x00, 0x00,
;
;/* Code: 0x7B, ASCII Character: '{' */
;0x00, 0x00, 0x00, 0x00, 0x00, 0x00, 0x00, 0x00,
;0x00, 0x00, 0x00, 0x00, 0x00, 0x00, 0x00, 0x00,
;0x00, 0x00, 0x00, 0x00, 0x00, 0x00, 0x00, 0x00,
;0x00, 0x00, 0x00, 0x00,
;
;/* Code: 0x7C, ASCII Character: '|' */
;0x00, 0x00, 0x00, 0x00, 0x00, 0x00, 0x00, 0x00,
;0x00, 0x00, 0x00, 0x00, 0x00, 0x00, 0x00, 0x00,
;0x00, 0x00, 0x00, 0x00, 0x00, 0x00, 0x00, 0x00,
;0x00, 0x00, 0x00, 0x00,
;
;/* Code: 0x7D, ASCII Character: '}' */
;0x00, 0x00, 0x00, 0x00, 0x00, 0x00, 0x00, 0x00,
;0x00, 0x00, 0x00, 0x00, 0x00, 0x00, 0x00, 0x00,
;0x00, 0x00, 0x00, 0x00, 0x00, 0x00, 0x00, 0x00,
;0x00, 0x00, 0x00, 0x00,
;
;/* Code: 0x7E, ASCII Character: '~' */
;0x00, 0x00, 0x00, 0x00, 0x00, 0x00, 0x00, 0x00,
;0x00, 0x00, 0x00, 0x00, 0x00, 0x00, 0x00, 0x00,
;0x00, 0x00, 0x00, 0x00, 0x00, 0x00, 0x00, 0x00,
;0x00, 0x00, 0x00, 0x00,
;
;/* Code: 0x7F, ASCII Character: '' */
;0x00, 0x00, 0x00, 0x00, 0x00, 0x00, 0x00, 0x00,
;0x00, 0x00, 0x00, 0x00, 0x00, 0x00, 0x00, 0x00,
;0x00, 0x00, 0x00, 0x00, 0x00, 0x00, 0x00, 0x00,
;0x00, 0x00, 0x00, 0x00,
;
;#else
;/* Font data for displays organized as
;   rows of vertical bytes */
;
;/* Code: 0x20, ASCII Character: ' ' */
;0x00, 0x00, 0x00, 0x00, 0x00, 0x00, 0x00, 0x00,
;0x00, 0x00, 0x00, 0x00, 0x00, 0x00, 0x00, 0x00,
;0x00, 0x00, 0x00, 0x00,
;
;/* Code: 0x21, ASCII Character: '!' */
;0x00, 0x00, 0x00, 0x00, 0x00, 0x00, 0x00, 0x00,
;0x00, 0x00, 0x00, 0x00, 0x00, 0x00, 0x00, 0x00,
;0x00, 0x00, 0x00, 0x00,
;
;/* Code: 0x22, ASCII Character: '"' */
;0x00, 0x00, 0x00, 0x00, 0x00, 0x00, 0x00, 0x00,
;0x00, 0x00, 0x00, 0x00, 0x00, 0x00, 0x00, 0x00,
;0x00, 0x00, 0x00, 0x00,
;
;/* Code: 0x23, ASCII Character: '#' */
;0x00, 0x00, 0x00, 0x00, 0x00, 0x00, 0x00, 0x00,
;0x00, 0x00, 0x00, 0x00, 0x00, 0x00, 0x00, 0x00,
;0x00, 0x00, 0x00, 0x00,
;
;/* Code: 0x24, ASCII Character: '$' */
;0x00, 0x00, 0x00, 0x00, 0x00, 0x00, 0x00, 0x00,
;0x00, 0x00, 0x00, 0x00, 0x00, 0x00, 0x00, 0x00,
;0x00, 0x00, 0x00, 0x00,
;
;/* Code: 0x25, ASCII Character: '%' */
;0x00, 0x00, 0x00, 0x00, 0x00, 0x00, 0x00, 0x00,
;0x00, 0x00, 0x00, 0x00, 0x00, 0x00, 0x00, 0x00,
;0x00, 0x00, 0x00, 0x00,
;
;/* Code: 0x26, ASCII Character: '&' */
;0x00, 0x00, 0x00, 0x00, 0x00, 0x00, 0x00, 0x00,
;0x00, 0x00, 0x00, 0x00, 0x00, 0x00, 0x00, 0x00,
;0x00, 0x00, 0x00, 0x00,
;
;/* Code: 0x27, ASCII Character: ''' */
;0x00, 0x00, 0x00, 0x00, 0x00, 0x00, 0x00, 0x00,
;0x00, 0x00, 0x00, 0x00, 0x00, 0x00, 0x00, 0x00,
;0x00, 0x00, 0x00, 0x00,
;
;/* Code: 0x28, ASCII Character: '(' */
;0x00, 0x00, 0x00, 0x00, 0x00, 0x00, 0x00, 0x00,
;0x00, 0x00, 0x00, 0x00, 0x00, 0x00, 0x00, 0x00,
;0x00, 0x00, 0x00, 0x00,
;
;/* Code: 0x29, ASCII Character: ')' */
;0x00, 0x00, 0x00, 0x00, 0x00, 0x00, 0x00, 0x00,
;0x00, 0x00, 0x00, 0x00, 0x00, 0x00, 0x00, 0x00,
;0x00, 0x00, 0x00, 0x00,
;
;/* Code: 0x2A, ASCII Character: '*' */
;0x00, 0x00, 0x00, 0x00, 0x00, 0x00, 0x00, 0x00,
;0x00, 0x00, 0x00, 0x00, 0x00, 0x00, 0x00, 0x00,
;0x00, 0x00, 0x00, 0x00,
;
;/* Code: 0x2B, ASCII Character: '+' */
;0x00, 0x00, 0x00, 0x00, 0x00, 0x00, 0x00, 0x00,
;0x00, 0x00, 0x00, 0x00, 0x00, 0x00, 0x00, 0x00,
;0x00, 0x00, 0x00, 0x00,
;
;/* Code: 0x2C, ASCII Character: ',' */
;0x00, 0x00, 0x00, 0x00, 0x00, 0x00, 0x00, 0x00,
;0x00, 0x00, 0x00, 0x00, 0x00, 0x00, 0x00, 0x00,
;0x00, 0x00, 0x00, 0x00,
;
;/* Code: 0x2D, ASCII Character: '-' */
;0x00, 0x00, 0x00, 0x00, 0x00, 0x00, 0x00, 0x00,
;0x00, 0x00, 0x00, 0x00, 0x00, 0x00, 0x00, 0x00,
;0x00, 0x00, 0x00, 0x00,
;
;/* Code: 0x2E, ASCII Character: '.' */
;0x00, 0x00, 0x00, 0x00, 0x00, 0x00, 0x00, 0x00,
;0x00, 0x00, 0x00, 0x00, 0x00, 0x00, 0x00, 0x00,
;0x00, 0x00, 0x00, 0x00,
;
;/* Code: 0x2F, ASCII Character: '/' */
;0x00, 0x00, 0x00, 0x00, 0x00, 0x00, 0x00, 0x00,
;0x00, 0x00, 0x00, 0x00, 0x00, 0x00, 0x00, 0x00,
;0x00, 0x00, 0x00, 0x00,
;
;/* Code: 0x30, ASCII Character: '0' */
;0x00, 0xFC, 0xFE, 0x03, 0x03, 0x03, 0x03, 0xFE,
;0xFC, 0x00, 0x00, 0x0F, 0x1F, 0x30, 0x30, 0x30,
;0x30, 0x1F, 0x0F, 0x00,
;
;/* Code: 0x31, ASCII Character: '1' */
;0x00, 0x18, 0x0C, 0x06, 0xFF, 0xFF, 0x00, 0x00,
;0x00, 0x00, 0x00, 0x30, 0x30, 0x30, 0x3F, 0x3F,
;0x30, 0x30, 0x30, 0x00,
;
;/* Code: 0x32, ASCII Character: '2' */
;0x00, 0x0C, 0x0E, 0x03, 0x03, 0x83, 0xC3, 0x7E,
;0x3C, 0x00, 0x00, 0x38, 0x3C, 0x36, 0x33, 0x31,
;0x30, 0x30, 0x30, 0x00,
;
;/* Code: 0x33, ASCII Character: '3' */
;0x00, 0x0C, 0x0E, 0xC3, 0xC3, 0xC3, 0xC3, 0xFE,
;0x3C, 0x00, 0x00, 0x0C, 0x1C, 0x30, 0x30, 0x30,
;0x30, 0x1F, 0x0F, 0x00,
;
;/* Code: 0x34, ASCII Character: '4' */
;0x00, 0xC0, 0xE0, 0xB0, 0x98, 0x8C, 0x86, 0xFF,
;0xFF, 0x80, 0x00, 0x01, 0x01, 0x01, 0x01, 0x01,
;0x01, 0x3F, 0x3F, 0x01,
;
;/* Code: 0x35, ASCII Character: '5' */
;0x00, 0xFF, 0xFF, 0xC3, 0xC3, 0xC3, 0xC3, 0x83,
;0x03, 0x00, 0x00, 0x30, 0x30, 0x30, 0x30, 0x30,
;0x30, 0x1F, 0x0F, 0x00,
;
;/* Code: 0x36, ASCII Character: '6' */
;0x00, 0xFC, 0xFE, 0xC3, 0xC3, 0xC3, 0xC3, 0x8E,
;0x0C, 0x00, 0x00, 0x0F, 0x1F, 0x30, 0x30, 0x30,
;0x30, 0x1F, 0x0F, 0x00,
;
;/* Code: 0x37, ASCII Character: '7' */
;0x00, 0x03, 0x03, 0x03, 0x03, 0xC3, 0xF3, 0x3F,
;0x0F, 0x00, 0x00, 0x00, 0x00, 0x00, 0x3E, 0x3F,
;0x03, 0x00, 0x00, 0x00,
;
;/* Code: 0x38, ASCII Character: '8' */
;0x00, 0x3C, 0xFE, 0xC3, 0xC3, 0xC3, 0xC3, 0xFE,
;0x3C, 0x00, 0x00, 0x0F, 0x1F, 0x30, 0x30, 0x30,
;0x30, 0x1F, 0x0F, 0x00,
;
;/* Code: 0x39, ASCII Character: '9' */
;0x00, 0x7C, 0xFE, 0xC3, 0xC3, 0xC3, 0xC3, 0xFE,
;0xFC, 0x00, 0x00, 0x0C, 0x1C, 0x30, 0x30, 0x30,
;0x30, 0x1F, 0x0F, 0x00,
;
;/* Code: 0x3A, ASCII Character: ':' */
;0x00, 0x00, 0x00, 0x18, 0x3C, 0x3C, 0x18, 0x00,
;0x00, 0x00, 0x00, 0x00, 0x00, 0x06, 0x0F, 0x0F,
;0x06, 0x00, 0x00, 0x00,
;
;/* Code: 0x3B, ASCII Character: ';' */
;0x00, 0x00, 0x00, 0x00, 0x00, 0x00, 0x00, 0x00,
;0x00, 0x00, 0x00, 0x00, 0x00, 0x00, 0x00, 0x00,
;0x00, 0x00, 0x00, 0x00,
;
;/* Code: 0x3C, ASCII Character: '<' */
;0x00, 0x00, 0x00, 0x00, 0x00, 0x00, 0x00, 0x00,
;0x00, 0x00, 0x00, 0x00, 0x00, 0x00, 0x00, 0x00,
;0x00, 0x00, 0x00, 0x00,
;
;/* Code: 0x3D, ASCII Character: '=' */
;0x00, 0x00, 0x00, 0x00, 0x00, 0x00, 0x00, 0x00,
;0x00, 0x00, 0x00, 0x00, 0x00, 0x00, 0x00, 0x00,
;0x00, 0x00, 0x00, 0x00,
;
;/* Code: 0x3E, ASCII Character: '>' */
;0x00, 0x00, 0x00, 0x00, 0x00, 0x00, 0x00, 0x00,
;0x00, 0x00, 0x00, 0x00, 0x00, 0x00, 0x00, 0x00,
;0x00, 0x00, 0x00, 0x00,
;
;/* Code: 0x3F, ASCII Character: '?' */
;0x00, 0x00, 0x00, 0x00, 0x00, 0x00, 0x00, 0x00,
;0x00, 0x00, 0x00, 0x00, 0x00, 0x00, 0x00, 0x00,
;0x00, 0x00, 0x00, 0x00,
;
;/* Code: 0x40, ASCII Character: '@' */
;0x00, 0x00, 0x00, 0x00, 0x00, 0x00, 0x00, 0x00,
;0x00, 0x00, 0x00, 0x00, 0x00, 0x00, 0x00, 0x00,
;0x00, 0x00, 0x00, 0x00,
;
;/* Code: 0x41, ASCII Character: 'A' */
;0xFC, 0xFE, 0x83, 0x83, 0x83, 0x83, 0x83, 0x83,
;0xFE, 0xFC, 0x3F, 0x3F, 0x01, 0x01, 0x01, 0x01,
;0x01, 0x01, 0x3F, 0x3F,
;
;/* Code: 0x42, ASCII Character: 'B' */
;0xFF, 0xFF, 0xC3, 0xC3, 0xC3, 0xC3, 0xC3, 0xC3,
;0xFE, 0x3C, 0x3F, 0x3F, 0x30, 0x30, 0x30, 0x30,
;0x30, 0x30, 0x1F, 0x0F,
;
;/* Code: 0x43, ASCII Character: 'C' */
;0xF8, 0xFC, 0x06, 0x03, 0x03, 0x03, 0x03, 0x03,
;0x0E, 0x0C, 0x07, 0x0F, 0x18, 0x30, 0x30, 0x30,
;0x30, 0x30, 0x1C, 0x0C,
;
;/* Code: 0x44, ASCII Character: 'D' */
;0xFF, 0xFF, 0x03, 0x03, 0x03, 0x03, 0x03, 0x06,
;0xFC, 0xF8, 0x3F, 0x3F, 0x30, 0x30, 0x30, 0x30,
;0x30, 0x18, 0x0F, 0x07,
;
;/* Code: 0x45, ASCII Character: 'E' */
;0xFF, 0xFF, 0xC3, 0xC3, 0xC3, 0xC3, 0xC3, 0xC3,
;0xC3, 0x03, 0x3F, 0x3F, 0x30, 0x30, 0x30, 0x30,
;0x30, 0x30, 0x30, 0x30,
;
;/* Code: 0x46, ASCII Character: 'F' */
;0xFF, 0xFF, 0xC3, 0xC3, 0xC3, 0xC3, 0xC3, 0xC3,
;0x03, 0x03, 0x3F, 0x3F, 0x00, 0x00, 0x00, 0x00,
;0x00, 0x00, 0x00, 0x00,
;
;/* Code: 0x47, ASCII Character: 'G' */
;0xF8, 0xFC, 0x06, 0x03, 0x03, 0x03, 0x83, 0x83,
;0x8E, 0x8C, 0x07, 0x0F, 0x18, 0x30, 0x30, 0x30,
;0x31, 0x31, 0x1F, 0x0F,
;
;/* Code: 0x48, ASCII Character: 'H' */
;0xFF, 0xFF, 0xC0, 0xC0, 0xC0, 0xC0, 0xC0, 0xC0,
;0xFF, 0xFF, 0x3F, 0x3F, 0x00, 0x00, 0x00, 0x00,
;0x00, 0x00, 0x3F, 0x3F,
;
;/* Code: 0x49, ASCII Character: 'I' */
;0x00, 0x00, 0x03, 0x03, 0xFF, 0xFF, 0x03, 0x03,
;0x00, 0x00, 0x00, 0x00, 0x30, 0x30, 0x3F, 0x3F,
;0x30, 0x30, 0x00, 0x00,
;
;/* Code: 0x4A, ASCII Character: 'J' */
;0x00, 0x00, 0x00, 0x03, 0x03, 0xFF, 0xFF, 0x03,
;0x03, 0x00, 0x0C, 0x1C, 0x30, 0x30, 0x30, 0x1F,
;0x0F, 0x00, 0x00, 0x00,
;
;/* Code: 0x4B, ASCII Character: 'K' */
;0xFF, 0xFF, 0xC0, 0xE0, 0x30, 0x18, 0x0C, 0x06,
;0x03, 0x01, 0x3F, 0x3F, 0x00, 0x01, 0x03, 0x06,
;0x0C, 0x18, 0x30, 0x20,
;
;/* Code: 0x4C, ASCII Character: 'L' */
;0xFF, 0xFF, 0x00, 0x00, 0x00, 0x00, 0x00, 0x00,
;0x00, 0x3F, 0x3F, 0x30, 0x30, 0x30, 0x30, 0x30,
;0x30, 0x30,
;
;/* Code: 0x4D, ASCII Character: 'M' */
;0xFF, 0xFF, 0x1C, 0x70, 0xC0, 0xC0, 0x70, 0x1C,
;0xFF, 0xFF, 0x3F, 0x3F, 0x00, 0x00, 0x01, 0x01,
;0x00, 0x00, 0x3F, 0x3F,
;
;/* Code: 0x4E, ASCII Character: 'N' */
;0xFF, 0xFF, 0x0E, 0x38, 0xE0, 0x80, 0x00, 0x00,
;0xFF, 0xFF, 0x3F, 0x3F, 0x00, 0x00, 0x00, 0x03,
;0x0E, 0x18, 0x3F, 0x3F,
;
;/* Code: 0x4F, ASCII Character: 'O' */
;0xF8, 0xFC, 0x06, 0x03, 0x03, 0x03, 0x03, 0x06,
;0xFC, 0xF8, 0x07, 0x0F, 0x18, 0x30, 0x30, 0x30,
;0x30, 0x18, 0x0F, 0x07,
;
;/* Code: 0x50, ASCII Character: 'P' */
;0xFF, 0xFF, 0x83, 0x83, 0x83, 0x83, 0x83, 0xC7,
;0xFE, 0x7C, 0x3F, 0x3F, 0x01, 0x01, 0x01, 0x01,
;0x01, 0x01, 0x00, 0x00,
;
;/* Code: 0x51, ASCII Character: 'Q' */
;0xF8, 0xFC, 0x06, 0x03, 0x03, 0x03, 0x03, 0x06,
;0xFC, 0xF8, 0x07, 0x0F, 0x18, 0x30, 0x30, 0x34,
;0x3C, 0x18, 0x3F, 0x27,
;
;/* Code: 0x52, ASCII Character: 'R' */
;0xFF, 0xFF, 0xC3, 0xC3, 0xC3, 0xC3, 0xE7, 0x7E,
;0x3C, 0x00, 0x3F, 0x3F, 0x01, 0x03, 0x07, 0x0E,
;0x1C, 0x38, 0x30, 0x20,
;
;/* Code: 0x53, ASCII Character: 'S' */
;0x3C, 0x7E, 0xC3, 0xC3, 0xC3, 0xC3, 0xC3, 0xC3,
;0x8E, 0x0C, 0x0C, 0x1C, 0x30, 0x30, 0x30, 0x30,
;0x30, 0x30, 0x1F, 0x0F,
;
;/* Code: 0x54, ASCII Character: 'T' */
;0x03, 0x03, 0x03, 0x03, 0xFF, 0xFF, 0x03, 0x03,
;0x03, 0x03, 0x00, 0x00, 0x00, 0x00, 0x3F, 0x3F,
;0x00, 0x00, 0x00, 0x00,
;
;/* Code: 0x55, ASCII Character: 'U' */
;0xFF, 0xFF, 0x00, 0x00, 0x00, 0x00, 0x00, 0x00,
;0xFF, 0xFF, 0x0F, 0x1F, 0x30, 0x30, 0x30, 0x30,
;0x30, 0x30, 0x1F, 0x0F,
;
;/* Code: 0x56, ASCII Character: 'V' */
;0xFF, 0xFF, 0x00, 0x00, 0x00, 0x00, 0x00, 0x00,
;0xFF, 0xFF, 0x03, 0x07, 0x0C, 0x18, 0x30, 0x30,
;0x18, 0x0C, 0x07, 0x03,
;
;/* Code: 0x57, ASCII Character: 'W' */
;0xFF, 0xFF, 0x00, 0x80, 0xE0, 0xE0, 0x80, 0x00,
;0xFF, 0xFF, 0x3F, 0x3F, 0x0E, 0x03, 0x00, 0x00,
;0x03, 0x0E, 0x3F, 0x3F,
;
;/* Code: 0x58, ASCII Character: 'X' */
;0x0F, 0x1F, 0xB0, 0xE0, 0xC0, 0xC0, 0xE0, 0xB0,
;0x1F, 0x0F, 0x3E, 0x3F, 0x03, 0x01, 0x00, 0x00,
;0x01, 0x03, 0x3F, 0x3E,
;
;/* Code: 0x59, ASCII Character: 'Y' */
;0x1F, 0x3F, 0x60, 0xC0, 0x80, 0x80, 0xC0, 0x60,
;0x3F, 0x1F, 0x00, 0x00, 0x00, 0x00, 0x3F, 0x3F,
;0x00, 0x00, 0x00, 0x00,
;
;/* Code: 0x5A, ASCII Character: 'Z' */
;0x03, 0x03, 0x03, 0x83, 0xC3, 0x63, 0x33, 0x1B,
;0x0F, 0x07, 0x3C, 0x3E, 0x33, 0x31, 0x30, 0x30,
;0x30, 0x30, 0x30, 0x30,
;
;/* Code: 0x5B, ASCII Character: '[' */
;0x00, 0x00, 0x00, 0x00, 0x00, 0x00, 0x00, 0x00,
;0x00, 0x00, 0x00, 0x00, 0x00, 0x00, 0x00, 0x00,
;0x00, 0x00, 0x00, 0x00,
;
;/* Code: 0x5C, ASCII Character: '\' */
;0x00, 0x00, 0x00, 0x00, 0x00, 0x00, 0x00, 0x00,
;0x00, 0x00, 0x00, 0x00, 0x00, 0x00, 0x00, 0x00,
;0x00, 0x00, 0x00, 0x00,
;
;/* Code: 0x5D, ASCII Character: ']' */
;0x00, 0x00, 0x00, 0x00, 0x00, 0x00, 0x00, 0x00,
;0x00, 0x00, 0x00, 0x00, 0x00, 0x00, 0x00, 0x00,
;0x00, 0x00, 0x00, 0x00,
;
;/* Code: 0x5E, ASCII Character: '^' */
;0x00, 0x00, 0x00, 0x00, 0x00, 0x00, 0x00, 0x00,
;0x00, 0x00, 0x00, 0x00, 0x00, 0x00, 0x00, 0x00,
;0x00, 0x00, 0x00, 0x00,
;
;/* Code: 0x5F, ASCII Character: '_' */
;0x00, 0x00, 0x00, 0x00, 0x00, 0x00, 0x00, 0x00,
;0x00, 0x00, 0x00, 0x00, 0x00, 0x00, 0x00, 0x00,
;0x00, 0x00, 0x00, 0x00,
;
;/* Code: 0x60, ASCII Character: '`' */
;0x00, 0x00, 0x00, 0x00, 0x00, 0x00, 0x00, 0x00,
;0x00, 0x00, 0x00, 0x00, 0x00, 0x00, 0x00, 0x00,
;0x00, 0x00, 0x00, 0x00,
;
;/* Code: 0x61, ASCII Character: 'a' */
;0x00, 0x00, 0x00, 0x00, 0x00, 0x00, 0x00, 0x00,
;0x00, 0x00, 0x00, 0x00, 0x00, 0x00, 0x00, 0x00,
;0x00, 0x00, 0x00, 0x00,
;
;/* Code: 0x62, ASCII Character: 'b' */
;0x00, 0x00, 0x00, 0x00, 0x00, 0x00, 0x00, 0x00,
;0x00, 0x00, 0x00, 0x00, 0x00, 0x00, 0x00, 0x00,
;0x00, 0x00, 0x00, 0x00,
;
;/* Code: 0x63, ASCII Character: 'c' */
;0x00, 0x00, 0x00, 0x00, 0x00, 0x00, 0x00, 0x00,
;0x00, 0x00, 0x00, 0x00, 0x00, 0x00, 0x00, 0x00,
;0x00, 0x00, 0x00, 0x00,
;
;/* Code: 0x64, ASCII Character: 'd' */
;0x00, 0x00, 0x00, 0x00, 0x00, 0x00, 0x00, 0x00,
;0x00, 0x00, 0x00, 0x00, 0x00, 0x00, 0x00, 0x00,
;0x00, 0x00, 0x00, 0x00,
;
;/* Code: 0x65, ASCII Character: 'e' */
;0x00, 0x00, 0x00, 0x00, 0x00, 0x00, 0x00, 0x00,
;0x00, 0x00, 0x00, 0x00, 0x00, 0x00, 0x00, 0x00,
;0x00, 0x00, 0x00, 0x00,
;
;/* Code: 0x66, ASCII Character: 'f' */
;0x00, 0x00, 0x00, 0x00, 0x00, 0x00, 0x00, 0x00,
;0x00, 0x00, 0x00, 0x00, 0x00, 0x00, 0x00, 0x00,
;0x00, 0x00, 0x00, 0x00,
;
;/* Code: 0x67, ASCII Character: 'g' */
;0x00, 0x00, 0x00, 0x00, 0x00, 0x00, 0x00, 0x00,
;0x00, 0x00, 0x00, 0x00, 0x00, 0x00, 0x00, 0x00,
;0x00, 0x00, 0x00, 0x00,
;
;/* Code: 0x68, ASCII Character: 'h' */
;0x00, 0x00, 0x00, 0x00, 0x00, 0x00, 0x00, 0x00,
;0x00, 0x00, 0x00, 0x00, 0x00, 0x00, 0x00, 0x00,
;0x00, 0x00, 0x00, 0x00,
;
;/* Code: 0x69, ASCII Character: 'i' */
;0x00, 0x00, 0x00, 0x00, 0x00, 0x00, 0x00, 0x00,
;0x00, 0x00, 0x00, 0x00, 0x00, 0x00, 0x00, 0x00,
;0x00, 0x00, 0x00, 0x00,
;
;/* Code: 0x6A, ASCII Character: 'j' */
;0x00, 0x00, 0x00, 0x00, 0x00, 0x00, 0x00, 0x00,
;0x00, 0x00, 0x00, 0x00, 0x00, 0x00, 0x00, 0x00,
;0x00, 0x00, 0x00, 0x00,
;
;/* Code: 0x6B, ASCII Character: 'k' */
;0x00, 0x00, 0x00, 0x00, 0x00, 0x00, 0x00, 0x00,
;0x00, 0x00, 0x00, 0x00, 0x00, 0x00, 0x00, 0x00,
;0x00, 0x00, 0x00, 0x00,
;
;/* Code: 0x6C, ASCII Character: 'l' */
;0x00, 0x00, 0x00, 0x00, 0x00, 0x00, 0x00, 0x00,
;0x00, 0x00, 0x00, 0x00, 0x00, 0x00, 0x00, 0x00,
;0x00, 0x00, 0x00, 0x00,
;
;/* Code: 0x6D, ASCII Character: 'm' */
;0x00, 0x00, 0x00, 0x00, 0x00, 0x00, 0x00, 0x00,
;0x00, 0x00, 0x00, 0x00, 0x00, 0x00, 0x00, 0x00,
;0x00, 0x00, 0x00, 0x00,
;
;/* Code: 0x6E, ASCII Character: 'n' */
;0x00, 0x00, 0x00, 0x00, 0x00, 0x00, 0x00, 0x00,
;0x00, 0x00, 0x00, 0x00, 0x00, 0x00, 0x00, 0x00,
;0x00, 0x00, 0x00, 0x00,
;
;/* Code: 0x6F, ASCII Character: 'o' */
;0x00, 0x00, 0x00, 0x00, 0x00, 0x00, 0x00, 0x00,
;0x00, 0x00, 0x00, 0x00, 0x00, 0x00, 0x00, 0x00,
;0x00, 0x00, 0x00, 0x00,
;
;/* Code: 0x70, ASCII Character: 'p' */
;0x00, 0x00, 0x00, 0x00, 0x00, 0x00, 0x00, 0x00,
;0x00, 0x00, 0x00, 0x00, 0x00, 0x00, 0x00, 0x00,
;0x00, 0x00, 0x00, 0x00,
;
;/* Code: 0x71, ASCII Character: 'q' */
;0x00, 0x00, 0x00, 0x00, 0x00, 0x00, 0x00, 0x00,
;0x00, 0x00, 0x00, 0x00, 0x00, 0x00, 0x00, 0x00,
;0x00, 0x00, 0x00, 0x00,
;
;/* Code: 0x72, ASCII Character: 'r' */
;0x00, 0x00, 0x00, 0x00, 0x00, 0x00, 0x00, 0x00,
;0x00, 0x00, 0x00, 0x00, 0x00, 0x00, 0x00, 0x00,
;0x00, 0x00, 0x00, 0x00,
;
;/* Code: 0x73, ASCII Character: 's' */
;0x00, 0x00, 0x00, 0x00, 0x00, 0x00, 0x00, 0x00,
;0x00, 0x00, 0x00, 0x00, 0x00, 0x00, 0x00, 0x00,
;0x00, 0x00, 0x00, 0x00,
;
;/* Code: 0x74, ASCII Character: 't' */
;0x00, 0x00, 0x00, 0x00, 0x00, 0x00, 0x00, 0x00,
;0x00, 0x00, 0x00, 0x00, 0x00, 0x00, 0x00, 0x00,
;0x00, 0x00, 0x00, 0x00,
;
;/* Code: 0x75, ASCII Character: 'u' */
;0x00, 0x00, 0x00, 0x00, 0x00, 0x00, 0x00, 0x00,
;0x00, 0x00, 0x00, 0x00, 0x00, 0x00, 0x00, 0x00,
;0x00, 0x00, 0x00, 0x00,
;
;/* Code: 0x76, ASCII Character: 'v' */
;0x20, 0x60, 0xE0, 0xE0, 0xE0, 0xE0, 0xE0, 0x60,
;0x20, 0x00, 0x00, 0x00, 0x01, 0x03, 0x01, 0x00,
;0x00, 0x00,
;
;/* Code: 0x77, ASCII Character: 'w' */
;0x00, 0x00, 0x00, 0x00, 0x00, 0x00, 0x00, 0x00,
;0x00, 0x00, 0x00, 0x00, 0x00, 0x00, 0x00, 0x00,
;0x00, 0x00, 0x00, 0x00,
;
;/* Code: 0x78, ASCII Character: 'x' */
;0x00, 0x00, 0x00, 0x00, 0x00, 0x00, 0x00, 0x00,
;0x00, 0x00, 0x00, 0x00, 0x00, 0x00, 0x00, 0x00,
;0x00, 0x00, 0x00, 0x00,
;
;/* Code: 0x79, ASCII Character: 'y' */
;0x00, 0x00, 0x00, 0x00, 0x00, 0x00, 0x00, 0x00,
;0x00, 0x00, 0x00, 0x00, 0x00, 0x00, 0x00, 0x00,
;0x00, 0x00, 0x00, 0x00,
;
;/* Code: 0x7A, ASCII Character: 'z' */
;0x00, 0x00, 0x00, 0x00, 0x00, 0x00, 0x00, 0x00,
;0x00, 0x00, 0x00, 0x00, 0x00, 0x00, 0x00, 0x00,
;0x00, 0x00, 0x00, 0x00,
;
;/* Code: 0x7B, ASCII Character: '{' */
;0x00, 0x00, 0x00, 0x00, 0x00, 0x00, 0x00, 0x00,
;0x00, 0x00, 0x00, 0x00, 0x00, 0x00, 0x00, 0x00,
;0x00, 0x00, 0x00, 0x00,
;
;/* Code: 0x7C, ASCII Character: '|' */
;0x00, 0x00, 0x00, 0x00, 0x00, 0x00, 0x00, 0x00,
;0x00, 0x00, 0x00, 0x00, 0x00, 0x00, 0x00, 0x00,
;0x00, 0x00, 0x00, 0x00,
;
;/* Code: 0x7D, ASCII Character: '}' */
;0x00, 0x00, 0x00, 0x00, 0x00, 0x00, 0x00, 0x00,
;0x00, 0x00, 0x00, 0x00, 0x00, 0x00, 0x00, 0x00,
;0x00, 0x00, 0x00, 0x00,
;
;/* Code: 0x7E, ASCII Character: '~' */
;0x00, 0x00, 0x00, 0x00, 0x00, 0x00, 0x00, 0x00,
;0x00, 0x00, 0x00, 0x00, 0x00, 0x00, 0x00, 0x00,
;0x00, 0x00, 0x00, 0x00,
;
;/* Code: 0x7F, ASCII Character: '' */
;0x00, 0x00, 0x00, 0x00, 0x00, 0x00, 0x00, 0x00,
;0x00, 0x00, 0x00, 0x00, 0x00, 0x00, 0x00, 0x00,
;0x00, 0x00, 0x00, 0x00,
;
;#endif
;};
;
;#include <tiny_letter.c>
;/****************************************************************************
;Font created by the LCD Vision V1.05 font & image editor/converter
;(C) Copyright 2011-2013 Pavel Haiduc, HP InfoTech s.r.l.
;http://www.hpinfotech.com
;
;Font name: tiny_letter
;The font is proportional (has variable width).
;Font height: 5 pixels
;First character: 0x20
;Last character: 0x7F
;
;Exported font data size:
;580 bytes for displays organized as horizontal rows of bytes
;481 bytes for displays organized as rows of vertical bytes.
;****************************************************************************/
;
;flash unsigned char tiny_letter[]=
;{
;0x00, /* Proportional font */
;0x05, /* Font height */
;0x20, /* First character */
;0x60, /* Number of characters in font */
;
;/* Character widths */
;0x01, 0x04, 0x04, 0x04, 0x04, 0x04, 0x04, 0x04,
;0x04, 0x04, 0x04, 0x04, 0x04, 0x04, 0x04, 0x03,
;0x04, 0x03, 0x04, 0x04, 0x04, 0x04, 0x04, 0x04,
;0x04, 0x04, 0x03, 0x04, 0x04, 0x04, 0x04, 0x04,
;0x04, 0x04, 0x04, 0x04, 0x04, 0x04, 0x04, 0x04,
;0x04, 0x04, 0x04, 0x04, 0x04, 0x05, 0x04, 0x04,
;0x04, 0x04, 0x04, 0x04, 0x03, 0x04, 0x04, 0x05,
;0x05, 0x05, 0x04, 0x04, 0x04, 0x04, 0x04, 0x04,
;0x04, 0x04, 0x04, 0x04, 0x04, 0x04, 0x04, 0x04,
;0x04, 0x04, 0x04, 0x04, 0x04, 0x04, 0x04, 0x04,
;0x04, 0x04, 0x04, 0x04, 0x04, 0x04, 0x04, 0x04,
;0x04, 0x04, 0x04, 0x04, 0x04, 0x04, 0x04, 0x04,
;
;#ifndef _GLCD_DATA_BYTEY_
;/* Font data for displays organized as
;   horizontal rows of bytes */
;
;/* Code: 0x20, ASCII Character: ' ' */
;0x00, 0x00, 0x00, 0x00, 0x00,
;
;/* Code: 0x21, ASCII Character: '!' */
;0x00, 0x00, 0x00, 0x00, 0x00,
;
;/* Code: 0x22, ASCII Character: '"' */
;0x00, 0x00, 0x00, 0x00, 0x00,
;
;/* Code: 0x23, ASCII Character: '#' */
;0x00, 0x00, 0x00, 0x00, 0x00,
;
;/* Code: 0x24, ASCII Character: '$' */
;0x00, 0x00, 0x00, 0x00, 0x00,
;
;/* Code: 0x25, ASCII Character: '%' */
;0x00, 0x00, 0x00, 0x00, 0x00,
;
;/* Code: 0x26, ASCII Character: '&' */
;0x00, 0x00, 0x00, 0x00, 0x00,
;
;/* Code: 0x27, ASCII Character: ''' */
;0x00, 0x00, 0x00, 0x00, 0x00,
;
;/* Code: 0x28, ASCII Character: '(' */
;0x00, 0x00, 0x00, 0x00, 0x00,
;
;/* Code: 0x29, ASCII Character: ')' */
;0x00, 0x00, 0x00, 0x00, 0x00,
;
;/* Code: 0x2A, ASCII Character: '*' */
;0x00, 0x00, 0x00, 0x00, 0x00,
;
;/* Code: 0x2B, ASCII Character: '+' */
;0x00, 0x00, 0x00, 0x00, 0x00,
;
;/* Code: 0x2C, ASCII Character: ',' */
;0x00, 0x00, 0x00, 0x00, 0x00,
;
;/* Code: 0x2D, ASCII Character: '-' */
;0x00, 0x00, 0x00, 0x00, 0x00,
;
;/* Code: 0x2E, ASCII Character: '.' */
;0x00, 0x00, 0x00, 0x00, 0x00,
;
;/* Code: 0x2F, ASCII Character: '/' */
;0x04, 0x02, 0x02, 0x01, 0x01,
;
;/* Code: 0x30, ASCII Character: '0' */
;0x06, 0x09, 0x09, 0x09, 0x06,
;
;/* Code: 0x31, ASCII Character: '1' */
;0x02, 0x03, 0x02, 0x02, 0x07,
;
;/* Code: 0x32, ASCII Character: '2' */
;0x07, 0x08, 0x06, 0x01, 0x0F,
;
;/* Code: 0x33, ASCII Character: '3' */
;0x07, 0x08, 0x06, 0x08, 0x07,
;
;/* Code: 0x34, ASCII Character: '4' */
;0x04, 0x06, 0x05, 0x0F, 0x04,
;
;/* Code: 0x35, ASCII Character: '5' */
;0x0F, 0x01, 0x07, 0x08, 0x07,
;
;/* Code: 0x36, ASCII Character: '6' */
;0x06, 0x01, 0x07, 0x09, 0x06,
;
;/* Code: 0x37, ASCII Character: '7' */
;0x0F, 0x08, 0x04, 0x02, 0x02,
;
;/* Code: 0x38, ASCII Character: '8' */
;0x06, 0x09, 0x06, 0x09, 0x06,
;
;/* Code: 0x39, ASCII Character: '9' */
;0x06, 0x09, 0x0E, 0x08, 0x06,
;
;/* Code: 0x3A, ASCII Character: ':' */
;0x00, 0x02, 0x00, 0x02, 0x00,
;
;/* Code: 0x3B, ASCII Character: ';' */
;0x00, 0x04, 0x00, 0x04, 0x02,
;
;/* Code: 0x3C, ASCII Character: '<' */
;0x04, 0x02, 0x01, 0x02, 0x04,
;
;/* Code: 0x3D, ASCII Character: '=' */
;0x00, 0x0F, 0x00, 0x0F, 0x00,
;
;/* Code: 0x3E, ASCII Character: '>' */
;0x02, 0x04, 0x08, 0x04, 0x02,
;
;/* Code: 0x3F, ASCII Character: '?' */
;0x06, 0x08, 0x04, 0x00, 0x04,
;
;/* Code: 0x40, ASCII Character: '@' */
;0x00, 0x00, 0x00, 0x00, 0x00,
;
;/* Code: 0x41, ASCII Character: 'A' */
;0x06, 0x09, 0x0F, 0x09, 0x09,
;
;/* Code: 0x42, ASCII Character: 'B' */
;0x07, 0x09, 0x07, 0x09, 0x07,
;
;/* Code: 0x43, ASCII Character: 'C' */
;0x06, 0x09, 0x01, 0x09, 0x06,
;
;/* Code: 0x44, ASCII Character: 'D' */
;0x07, 0x09, 0x09, 0x09, 0x07,
;
;/* Code: 0x45, ASCII Character: 'E' */
;0x0F, 0x01, 0x07, 0x01, 0x0F,
;
;/* Code: 0x46, ASCII Character: 'F' */
;0x0F, 0x01, 0x07, 0x01, 0x01,
;
;/* Code: 0x47, ASCII Character: 'G' */
;0x06, 0x09, 0x01, 0x0D, 0x06,
;
;/* Code: 0x48, ASCII Character: 'H' */
;0x09, 0x09, 0x0F, 0x09, 0x09,
;
;/* Code: 0x49, ASCII Character: 'I' */
;0x04, 0x04, 0x04, 0x04, 0x04,
;
;/* Code: 0x4A, ASCII Character: 'J' */
;0x0E, 0x04, 0x04, 0x05, 0x02,
;
;/* Code: 0x4B, ASCII Character: 'K' */
;0x09, 0x05, 0x03, 0x05, 0x09,
;
;/* Code: 0x4C, ASCII Character: 'L' */
;0x01, 0x01, 0x01, 0x01, 0x0F,
;
;/* Code: 0x4D, ASCII Character: 'M' */
;0x11, 0x1B, 0x15, 0x11, 0x11,
;
;/* Code: 0x4E, ASCII Character: 'N' */
;0x09, 0x0B, 0x0D, 0x09, 0x09,
;
;/* Code: 0x4F, ASCII Character: 'O' */
;0x06, 0x09, 0x09, 0x09, 0x06,
;
;/* Code: 0x50, ASCII Character: 'P' */
;0x07, 0x09, 0x07, 0x01, 0x01,
;
;/* Code: 0x51, ASCII Character: 'Q' */
;0x06, 0x09, 0x09, 0x0D, 0x0E,
;
;/* Code: 0x52, ASCII Character: 'R' */
;0x07, 0x09, 0x07, 0x05, 0x09,
;
;/* Code: 0x53, ASCII Character: 'S' */
;0x0E, 0x01, 0x06, 0x08, 0x07,
;
;/* Code: 0x54, ASCII Character: 'T' */
;0x07, 0x02, 0x02, 0x02, 0x02,
;
;/* Code: 0x55, ASCII Character: 'U' */
;0x09, 0x09, 0x09, 0x09, 0x06,
;
;/* Code: 0x56, ASCII Character: 'V' */
;0x09, 0x09, 0x09, 0x06, 0x06,
;
;/* Code: 0x57, ASCII Character: 'W' */
;0x11, 0x11, 0x15, 0x1B, 0x11,
;
;/* Code: 0x58, ASCII Character: 'X' */
;0x11, 0x0A, 0x04, 0x0A, 0x11,
;
;/* Code: 0x59, ASCII Character: 'Y' */
;0x11, 0x0A, 0x04, 0x04, 0x04,
;
;/* Code: 0x5A, ASCII Character: 'Z' */
;0x0F, 0x08, 0x04, 0x02, 0x0F,
;
;/* Code: 0x5B, ASCII Character: '[' */
;0x00, 0x00, 0x00, 0x00, 0x00,
;
;/* Code: 0x5C, ASCII Character: '\' */
;0x00, 0x00, 0x00, 0x00, 0x00,
;
;/* Code: 0x5D, ASCII Character: ']' */
;0x00, 0x00, 0x00, 0x00, 0x00,
;
;/* Code: 0x5E, ASCII Character: '^' */
;0x00, 0x00, 0x00, 0x00, 0x00,
;
;/* Code: 0x5F, ASCII Character: '_' */
;0x00, 0x00, 0x00, 0x00, 0x00,
;
;/* Code: 0x60, ASCII Character: '`' */
;0x00, 0x00, 0x00, 0x00, 0x00,
;
;/* Code: 0x61, ASCII Character: 'a' */
;0x00, 0x00, 0x00, 0x00, 0x00,
;
;/* Code: 0x62, ASCII Character: 'b' */
;0x00, 0x00, 0x00, 0x00, 0x00,
;
;/* Code: 0x63, ASCII Character: 'c' */
;0x00, 0x00, 0x00, 0x00, 0x00,
;
;/* Code: 0x64, ASCII Character: 'd' */
;0x00, 0x00, 0x00, 0x00, 0x00,
;
;/* Code: 0x65, ASCII Character: 'e' */
;0x00, 0x00, 0x00, 0x00, 0x00,
;
;/* Code: 0x66, ASCII Character: 'f' */
;0x00, 0x00, 0x00, 0x00, 0x00,
;
;/* Code: 0x67, ASCII Character: 'g' */
;0x00, 0x00, 0x00, 0x00, 0x00,
;
;/* Code: 0x68, ASCII Character: 'h' */
;0x00, 0x00, 0x00, 0x00, 0x00,
;
;/* Code: 0x69, ASCII Character: 'i' */
;0x00, 0x00, 0x00, 0x00, 0x00,
;
;/* Code: 0x6A, ASCII Character: 'j' */
;0x00, 0x00, 0x00, 0x00, 0x00,
;
;/* Code: 0x6B, ASCII Character: 'k' */
;0x00, 0x00, 0x00, 0x00, 0x00,
;
;/* Code: 0x6C, ASCII Character: 'l' */
;0x00, 0x00, 0x00, 0x00, 0x00,
;
;/* Code: 0x6D, ASCII Character: 'm' */
;0x00, 0x00, 0x00, 0x00, 0x00,
;
;/* Code: 0x6E, ASCII Character: 'n' */
;0x00, 0x00, 0x00, 0x00, 0x00,
;
;/* Code: 0x6F, ASCII Character: 'o' */
;0x00, 0x00, 0x00, 0x00, 0x00,
;
;/* Code: 0x70, ASCII Character: 'p' */
;0x00, 0x00, 0x00, 0x00, 0x00,
;
;/* Code: 0x71, ASCII Character: 'q' */
;0x00, 0x00, 0x00, 0x00, 0x00,
;
;/* Code: 0x72, ASCII Character: 'r' */
;0x00, 0x00, 0x00, 0x00, 0x00,
;
;/* Code: 0x73, ASCII Character: 's' */
;0x00, 0x00, 0x00, 0x00, 0x00,
;
;/* Code: 0x74, ASCII Character: 't' */
;0x00, 0x00, 0x00, 0x00, 0x00,
;
;/* Code: 0x75, ASCII Character: 'u' */
;0x00, 0x00, 0x00, 0x00, 0x00,
;
;/* Code: 0x76, ASCII Character: 'v' */
;0x00, 0x00, 0x00, 0x00, 0x00,
;
;/* Code: 0x77, ASCII Character: 'w' */
;0x00, 0x00, 0x00, 0x00, 0x00,
;
;/* Code: 0x78, ASCII Character: 'x' */
;0x00, 0x00, 0x00, 0x00, 0x00,
;
;/* Code: 0x79, ASCII Character: 'y' */
;0x00, 0x00, 0x00, 0x00, 0x00,
;
;/* Code: 0x7A, ASCII Character: 'z' */
;0x00, 0x00, 0x00, 0x00, 0x00,
;
;/* Code: 0x7B, ASCII Character: '{' */
;0x00, 0x00, 0x00, 0x00, 0x00,
;
;/* Code: 0x7C, ASCII Character: '|' */
;0x00, 0x00, 0x00, 0x00, 0x00,
;
;/* Code: 0x7D, ASCII Character: '}' */
;0x00, 0x00, 0x00, 0x00, 0x00,
;
;/* Code: 0x7E, ASCII Character: '~' */
;0x00, 0x00, 0x00, 0x00, 0x00,
;
;/* Code: 0x7F, ASCII Character: '' */
;0x00, 0x00, 0x00, 0x00, 0x00,
;
;#else
;/* Font data for displays organized as
;   rows of vertical bytes */
;
;/* Code: 0x20, ASCII Character: ' ' */
;0x00,
;
;/* Code: 0x21, ASCII Character: '!' */
;0x00, 0x00, 0x00, 0x00,
;
;/* Code: 0x22, ASCII Character: '"' */
;0x00, 0x00, 0x00, 0x00,
;
;/* Code: 0x23, ASCII Character: '#' */
;0x00, 0x00, 0x00, 0x00,
;
;/* Code: 0x24, ASCII Character: '$' */
;0x00, 0x00, 0x00, 0x00,
;
;/* Code: 0x25, ASCII Character: '%' */
;0x00, 0x00, 0x00, 0x00,
;
;/* Code: 0x26, ASCII Character: '&' */
;0x00, 0x00, 0x00, 0x00,
;
;/* Code: 0x27, ASCII Character: ''' */
;0x00, 0x00, 0x00, 0x00,
;
;/* Code: 0x28, ASCII Character: '(' */
;0x00, 0x00, 0x00, 0x00,
;
;/* Code: 0x29, ASCII Character: ')' */
;0x00, 0x00, 0x00, 0x00,
;
;/* Code: 0x2A, ASCII Character: '*' */
;0x00, 0x00, 0x00, 0x00,
;
;/* Code: 0x2B, ASCII Character: '+' */
;0x00, 0x00, 0x00, 0x00,
;
;/* Code: 0x2C, ASCII Character: ',' */
;0x00, 0x00, 0x00, 0x00,
;
;/* Code: 0x2D, ASCII Character: '-' */
;0x00, 0x00, 0x00, 0x00,
;
;/* Code: 0x2E, ASCII Character: '.' */
;0x00, 0x00, 0x00, 0x00,
;
;/* Code: 0x2F, ASCII Character: '/' */
;0x18, 0x06, 0x01,
;
;/* Code: 0x30, ASCII Character: '0' */
;0x0E, 0x11, 0x11, 0x0E,
;
;/* Code: 0x31, ASCII Character: '1' */
;0x12, 0x1F, 0x10,
;
;/* Code: 0x32, ASCII Character: '2' */
;0x19, 0x15, 0x15, 0x12,
;
;/* Code: 0x33, ASCII Character: '3' */
;0x11, 0x15, 0x15, 0x0A,
;
;/* Code: 0x34, ASCII Character: '4' */
;0x0C, 0x0A, 0x1F, 0x08,
;
;/* Code: 0x35, ASCII Character: '5' */
;0x17, 0x15, 0x15, 0x09,
;
;/* Code: 0x36, ASCII Character: '6' */
;0x0E, 0x15, 0x15, 0x08,
;
;/* Code: 0x37, ASCII Character: '7' */
;0x01, 0x19, 0x05, 0x03,
;
;/* Code: 0x38, ASCII Character: '8' */
;0x0A, 0x15, 0x15, 0x0A,
;
;/* Code: 0x39, ASCII Character: '9' */
;0x02, 0x15, 0x15, 0x0E,
;
;/* Code: 0x3A, ASCII Character: ':' */
;0x00, 0x0A, 0x00,
;
;/* Code: 0x3B, ASCII Character: ';' */
;0x00, 0x10, 0x0A, 0x00,
;
;/* Code: 0x3C, ASCII Character: '<' */
;0x04, 0x0A, 0x11, 0x00,
;
;/* Code: 0x3D, ASCII Character: '=' */
;0x0A, 0x0A, 0x0A, 0x0A,
;
;/* Code: 0x3E, ASCII Character: '>' */
;0x00, 0x11, 0x0A, 0x04,
;
;/* Code: 0x3F, ASCII Character: '?' */
;0x00, 0x01, 0x15, 0x02,
;
;/* Code: 0x40, ASCII Character: '@' */
;0x00, 0x00, 0x00, 0x00,
;
;/* Code: 0x41, ASCII Character: 'A' */
;0x1E, 0x05, 0x05, 0x1E,
;
;/* Code: 0x42, ASCII Character: 'B' */
;0x1F, 0x15, 0x15, 0x0A,
;
;/* Code: 0x43, ASCII Character: 'C' */
;0x0E, 0x11, 0x11, 0x0A,
;
;/* Code: 0x44, ASCII Character: 'D' */
;0x1F, 0x11, 0x11, 0x0E,
;
;/* Code: 0x45, ASCII Character: 'E' */
;0x1F, 0x15, 0x15, 0x11,
;
;/* Code: 0x46, ASCII Character: 'F' */
;0x1F, 0x05, 0x05, 0x01,
;
;/* Code: 0x47, ASCII Character: 'G' */
;0x0E, 0x11, 0x19, 0x0A,
;
;/* Code: 0x48, ASCII Character: 'H' */
;0x1F, 0x04, 0x04, 0x1F,
;
;/* Code: 0x49, ASCII Character: 'I' */
;0x00, 0x00, 0x1F, 0x00,
;
;/* Code: 0x4A, ASCII Character: 'J' */
;0x08, 0x11, 0x0F, 0x01,
;
;/* Code: 0x4B, ASCII Character: 'K' */
;0x1F, 0x04, 0x0A, 0x11,
;
;/* Code: 0x4C, ASCII Character: 'L' */
;0x1F, 0x10, 0x10, 0x10,
;
;/* Code: 0x4D, ASCII Character: 'M' */
;0x1F, 0x02, 0x04, 0x02, 0x1F,
;
;/* Code: 0x4E, ASCII Character: 'N' */
;0x1F, 0x02, 0x04, 0x1F,
;
;/* Code: 0x4F, ASCII Character: 'O' */
;0x0E, 0x11, 0x11, 0x0E,
;
;/* Code: 0x50, ASCII Character: 'P' */
;0x1F, 0x05, 0x05, 0x02,
;
;/* Code: 0x51, ASCII Character: 'Q' */
;0x0E, 0x11, 0x19, 0x1E,
;
;/* Code: 0x52, ASCII Character: 'R' */
;0x1F, 0x05, 0x0D, 0x12,
;
;/* Code: 0x53, ASCII Character: 'S' */
;0x12, 0x15, 0x15, 0x09,
;
;/* Code: 0x54, ASCII Character: 'T' */
;0x01, 0x1F, 0x01,
;
;/* Code: 0x55, ASCII Character: 'U' */
;0x0F, 0x10, 0x10, 0x0F,
;
;/* Code: 0x56, ASCII Character: 'V' */
;0x07, 0x18, 0x18, 0x07,
;
;/* Code: 0x57, ASCII Character: 'W' */
;0x1F, 0x08, 0x04, 0x08, 0x1F,
;
;/* Code: 0x58, ASCII Character: 'X' */
;0x11, 0x0A, 0x04, 0x0A, 0x11,
;
;/* Code: 0x59, ASCII Character: 'Y' */
;0x01, 0x02, 0x1C, 0x02, 0x01,
;
;/* Code: 0x5A, ASCII Character: 'Z' */
;0x11, 0x19, 0x15, 0x13,
;
;/* Code: 0x5B, ASCII Character: '[' */
;0x00, 0x00, 0x00, 0x00,
;
;/* Code: 0x5C, ASCII Character: '\' */
;0x00, 0x00, 0x00, 0x00,
;
;/* Code: 0x5D, ASCII Character: ']' */
;0x00, 0x00, 0x00, 0x00,
;
;/* Code: 0x5E, ASCII Character: '^' */
;0x00, 0x00, 0x00, 0x00,
;
;/* Code: 0x5F, ASCII Character: '_' */
;0x00, 0x00, 0x00, 0x00,
;
;/* Code: 0x60, ASCII Character: '`' */
;0x00, 0x00, 0x00, 0x00,
;
;/* Code: 0x61, ASCII Character: 'a' */
;0x00, 0x00, 0x00, 0x00,
;
;/* Code: 0x62, ASCII Character: 'b' */
;0x00, 0x00, 0x00, 0x00,
;
;/* Code: 0x63, ASCII Character: 'c' */
;0x00, 0x00, 0x00, 0x00,
;
;/* Code: 0x64, ASCII Character: 'd' */
;0x00, 0x00, 0x00, 0x00,
;
;/* Code: 0x65, ASCII Character: 'e' */
;0x00, 0x00, 0x00, 0x00,
;
;/* Code: 0x66, ASCII Character: 'f' */
;0x00, 0x00, 0x00, 0x00,
;
;/* Code: 0x67, ASCII Character: 'g' */
;0x00, 0x00, 0x00, 0x00,
;
;/* Code: 0x68, ASCII Character: 'h' */
;0x00, 0x00, 0x00, 0x00,
;
;/* Code: 0x69, ASCII Character: 'i' */
;0x00, 0x00, 0x00, 0x00,
;
;/* Code: 0x6A, ASCII Character: 'j' */
;0x00, 0x00, 0x00, 0x00,
;
;/* Code: 0x6B, ASCII Character: 'k' */
;0x00, 0x00, 0x00, 0x00,
;
;/* Code: 0x6C, ASCII Character: 'l' */
;0x00, 0x00, 0x00, 0x00,
;
;/* Code: 0x6D, ASCII Character: 'm' */
;0x00, 0x00, 0x00, 0x00,
;
;/* Code: 0x6E, ASCII Character: 'n' */
;0x00, 0x00, 0x00, 0x00,
;
;/* Code: 0x6F, ASCII Character: 'o' */
;0x00, 0x00, 0x00, 0x00,
;
;/* Code: 0x70, ASCII Character: 'p' */
;0x00, 0x00, 0x00, 0x00,
;
;/* Code: 0x71, ASCII Character: 'q' */
;0x00, 0x00, 0x00, 0x00,
;
;/* Code: 0x72, ASCII Character: 'r' */
;0x00, 0x00, 0x00, 0x00,
;
;/* Code: 0x73, ASCII Character: 's' */
;0x00, 0x00, 0x00, 0x00,
;
;/* Code: 0x74, ASCII Character: 't' */
;0x00, 0x00, 0x00, 0x00,
;
;/* Code: 0x75, ASCII Character: 'u' */
;0x00, 0x00, 0x00, 0x00,
;
;/* Code: 0x76, ASCII Character: 'v' */
;0x00, 0x00, 0x00, 0x00,
;
;/* Code: 0x77, ASCII Character: 'w' */
;0x00, 0x00, 0x00, 0x00,
;
;/* Code: 0x78, ASCII Character: 'x' */
;0x00, 0x00, 0x00, 0x00,
;
;/* Code: 0x79, ASCII Character: 'y' */
;0x00, 0x00, 0x00, 0x00,
;
;/* Code: 0x7A, ASCII Character: 'z' */
;0x00, 0x00, 0x00, 0x00,
;
;/* Code: 0x7B, ASCII Character: '{' */
;0x00, 0x00, 0x00, 0x00,
;
;/* Code: 0x7C, ASCII Character: '|' */
;0x00, 0x00, 0x00, 0x00,
;
;/* Code: 0x7D, ASCII Character: '}' */
;0x00, 0x00, 0x00, 0x00,
;
;/* Code: 0x7E, ASCII Character: '~' */
;0x00, 0x00, 0x00, 0x00,
;
;/* Code: 0x7F, ASCII Character: '' */
;0x00, 0x00, 0x00, 0x00,
;
;#endif
;};
;
;unsigned char buff[80];
;long dem;
;station_info data_send;
;#include <gui.c>
;void border()
; 0000 0026 {
;    glcd_clear();
;    glcd_rectangle(0,0,84,48);
;    glcd_setfont(tiny_letter);
;    glcd_outtextxy(16,3,"HEALTH CARE");
;    glcd_rectangle(0,0,84,11);
;    glcd_rectangle(0,37,84,48);
;    glcd_outtextxy(15,40,"THPT YEN HOA");
;    glcd_setfont(big_letter_10x14);
;    glcd_outtextxy(8,17,"ROOM:");
;    glcd_outtextxy(67,17,"4");
;}

	.DSEG
_0xA8:
	.BYTE 0x21
;void display()
;{

	.CSEG
;    glcd_clear();
;    glcd_rectangle(0,0,84,48);
;    glcd_setfont(tiny_letter);
;    glcd_outtextxy(16,3,"HEALTH CARE");
;    glcd_rectangle(0,0,84,11);
;    glcd_rectangle(0,37,84,48);
;    glcd_outtextxy(15,40,"THPT YEN HOA");
;    glcd_setfont(big_letter_10x14);
;    glcd_outtextxy(4,17,"ROBOT");
;    glcd_setfont(tiny_letter);
;    glcd_outtextxy(59,30,"COME");
;
;}

	.DSEG
_0xA9:
	.BYTE 0x24
;interrupt [TIM0_OVF] void timer0_ovf(){
; 0000 0027 interrupt [12] void timer0_ovf(){

	.CSEG
_timer0_ovf:
; .FSTART _timer0_ovf
	ST   -Y,R22
	ST   -Y,R23
	ST   -Y,R26
	ST   -Y,R27
	ST   -Y,R30
	ST   -Y,R31
	IN   R30,SREG
	ST   -Y,R30
; 0000 0028     TCNT0 = 0x9C;
	LDI  R30,LOW(156)
	OUT  0x32,R30
; 0000 0029     dem++;
	LDI  R26,LOW(_dem)
	LDI  R27,HIGH(_dem)
	CALL __GETD1P_INC
	__SUBD1N -1
	CALL __PUTDP1_DEC
; 0000 002A }
	LD   R30,Y+
	OUT  SREG,R30
	LD   R31,Y+
	LD   R30,Y+
	LD   R27,Y+
	LD   R26,Y+
	LD   R23,Y+
	LD   R22,Y+
	RETI
; .FEND
;void main(void)
; 0000 002C {
_main:
; .FSTART _main
; 0000 002D GLCDINIT_t glcd_init_data;
; 0000 002E DDRB.4=1;
	SBIW R28,8
;	glcd_init_data -> Y+0
	SBI  0x17,4
; 0000 002F PORTB.4=0;
	CBI  0x18,4
; 0000 0030 DDRA.6=1;
	SBI  0x1A,6
; 0000 0031 PORTA.6=1;
	SBI  0x1B,6
; 0000 0032 DDRD = 0b11110000;
	LDI  R30,LOW(240)
	OUT  0x11,R30
; 0000 0033 PORTD = 0b11111111;
	LDI  R30,LOW(255)
	OUT  0x12,R30
; 0000 0034 TCCR0=(0<<CS02) | (1<<CS01) | (0<<CS00);
	LDI  R30,LOW(2)
	OUT  0x33,R30
; 0000 0035 TCNT0=0x9C;
	LDI  R30,LOW(156)
	OUT  0x32,R30
; 0000 0036 TIMSK=(0<<OCIE2) | (0<<TOIE2) | (0<<TICIE1) | (0<<OCIE1A) | (0<<OCIE1B) | (0<<TOIE1) | (1<<TOIE0);
	LDI  R30,LOW(1)
	OUT  0x39,R30
; 0000 0037 glcd_init_data.font=font5x7;
	LDI  R30,LOW(_font5x7*2)
	LDI  R31,HIGH(_font5x7*2)
	ST   Y,R30
	STD  Y+1,R31
; 0000 0038 glcd_init_data.temp_coef=90;
	LDD  R30,Y+6
	ANDI R30,LOW(0xFC)
	ORI  R30,2
	STD  Y+6,R30
; 0000 0039 glcd_init_data.bias=3;   //rom 1 3 3-4
	ANDI R30,LOW(0xE3)
	ORI  R30,LOW(0xC)
	STD  Y+6,R30
; 0000 003A 
; 0000 003B glcd_init_data.vlcd=60;   //rom 1-58;
	LDD  R30,Y+7
	ANDI R30,LOW(0x80)
	ORI  R30,LOW(0x3C)
	STD  Y+7,R30
; 0000 003C glcd_init(&glcd_init_data);
	MOVW R26,R28
	CALL _glcd_init
; 0000 003D 
; 0000 003E #asm("sei")
	sei
; 0000 003F 
; 0000 0040 RF_Init_RX();
	RCALL _RF_Init_RX
; 0000 0041 config();
	RCALL _config
; 0000 0042 RF_Config_RX_2();
	RCALL _RF_Config_RX_2
; 0000 0043 while (1)
_0xB2:
; 0000 0044    {
; 0000 0045     glcd_putimagef(0,0,temp,0);
	LDI  R30,LOW(0)
	ST   -Y,R30
	ST   -Y,R30
	LDI  R30,LOW(_temp*2)
	LDI  R31,HIGH(_temp*2)
	ST   -Y,R31
	ST   -Y,R30
	LDI  R26,LOW(0)
	CALL _glcd_putimagef
; 0000 0046 
; 0000 0047    }
	RJMP _0xB2
; 0000 0048 
; 0000 0049 }
_0xB5:
	RJMP _0xB5
; .FEND
	#ifndef __SLEEP_DEFINED__
	#define __SLEEP_DEFINED__
	.EQU __se_bit=0x80
	.EQU __sm_mask=0x70
	.EQU __sm_powerdown=0x20
	.EQU __sm_powersave=0x30
	.EQU __sm_standby=0x60
	.EQU __sm_ext_standby=0x70
	.EQU __sm_adc_noise_red=0x10
	.SET power_ctrl_reg=mcucr
	#endif

	.CSEG
	#ifndef __SLEEP_DEFINED__
	#define __SLEEP_DEFINED__
	.EQU __se_bit=0x80
	.EQU __sm_mask=0x70
	.EQU __sm_powerdown=0x20
	.EQU __sm_powersave=0x30
	.EQU __sm_standby=0x60
	.EQU __sm_ext_standby=0x70
	.EQU __sm_adc_noise_red=0x10
	.SET power_ctrl_reg=mcucr
	#endif

	.CSEG
_pcd8544_delay_G101:
; .FSTART _pcd8544_delay_G101
	RET
; .FEND
_pcd8544_wrbus_G101:
; .FSTART _pcd8544_wrbus_G101
	ST   -Y,R26
	ST   -Y,R17
	CBI  0x15,5
	LDI  R17,LOW(8)
_0x2020004:
	RCALL _pcd8544_delay_G101
	LDD  R30,Y+1
	ANDI R30,LOW(0x80)
	BREQ _0x2020006
	SBI  0x1B,1
	RJMP _0x2020007
_0x2020006:
	CBI  0x1B,1
_0x2020007:
	LDD  R30,Y+1
	LSL  R30
	STD  Y+1,R30
	RCALL _pcd8544_delay_G101
	SBI  0x1B,3
	RCALL _pcd8544_delay_G101
	CBI  0x1B,3
	SUBI R17,LOW(1)
	BRNE _0x2020004
	SBI  0x15,5
	LDD  R17,Y+0
	JMP  _0x2120003
; .FEND
_pcd8544_wrcmd:
; .FSTART _pcd8544_wrcmd
	ST   -Y,R26
	CBI  0x1B,0
	LD   R26,Y
	RCALL _pcd8544_wrbus_G101
	RJMP _0x2120007
; .FEND
_pcd8544_wrdata_G101:
; .FSTART _pcd8544_wrdata_G101
	ST   -Y,R26
	SBI  0x1B,0
	LD   R26,Y
	RCALL _pcd8544_wrbus_G101
	RJMP _0x2120007
; .FEND
_pcd8544_setaddr_G101:
; .FSTART _pcd8544_setaddr_G101
	ST   -Y,R26
	ST   -Y,R17
	LDD  R30,Y+1
	LSR  R30
	LSR  R30
	LSR  R30
	MOV  R17,R30
	LDI  R30,LOW(84)
	MUL  R30,R17
	MOVW R30,R0
	MOVW R26,R30
	LDD  R30,Y+2
	LDI  R31,0
	ADD  R30,R26
	ADC  R31,R27
	STS  _gfx_addr_G101,R30
	STS  _gfx_addr_G101+1,R31
	MOV  R30,R17
	LDD  R17,Y+0
	JMP  _0x2120002
; .FEND
_pcd8544_gotoxy:
; .FSTART _pcd8544_gotoxy
	ST   -Y,R26
	LDD  R30,Y+1
	ORI  R30,0x80
	MOV  R26,R30
	RCALL _pcd8544_wrcmd
	LDD  R30,Y+1
	ST   -Y,R30
	LDD  R26,Y+1
	RCALL _pcd8544_setaddr_G101
	ORI  R30,0x40
	MOV  R26,R30
	RCALL _pcd8544_wrcmd
	JMP  _0x2120003
; .FEND
_pcd8544_rdbyte:
; .FSTART _pcd8544_rdbyte
	ST   -Y,R26
	LDD  R30,Y+1
	ST   -Y,R30
	LDD  R26,Y+1
	RCALL _pcd8544_gotoxy
	LDS  R30,_gfx_addr_G101
	LDS  R31,_gfx_addr_G101+1
	SUBI R30,LOW(-_gfx_buffer_G101)
	SBCI R31,HIGH(-_gfx_buffer_G101)
	LD   R30,Z
	JMP  _0x2120003
; .FEND
_pcd8544_wrbyte:
; .FSTART _pcd8544_wrbyte
	ST   -Y,R26
	CALL SUBOPT_0x4
	LD   R26,Y
	STD  Z+0,R26
	RCALL _pcd8544_wrdata_G101
	RJMP _0x2120007
; .FEND
_glcd_init:
; .FSTART _glcd_init
	ST   -Y,R27
	ST   -Y,R26
	CALL __SAVELOCR4
	SBI  0x14,5
	SBI  0x15,5
	SBI  0x1A,3
	CBI  0x1B,3
	SBI  0x1A,1
	SBI  0x1A,0
	SBI  0x14,7
	CBI  0x15,7
	LDI  R26,LOW(10)
	LDI  R27,0
	CALL _delay_ms
	SBI  0x15,7
	LDD  R30,Y+4
	LDD  R31,Y+4+1
	SBIW R30,0
	BREQ _0x2020008
	LDD  R30,Z+6
	ANDI R30,LOW(0x3)
	MOV  R17,R30
	LDD  R30,Y+4
	LDD  R31,Y+4+1
	LDD  R30,Z+6
	LSR  R30
	LSR  R30
	ANDI R30,LOW(0x7)
	MOV  R16,R30
	LDD  R30,Y+4
	LDD  R31,Y+4+1
	LDD  R30,Z+7
	ANDI R30,0x7F
	MOV  R19,R30
	LDD  R26,Y+4
	LDD  R27,Y+4+1
	CALL __GETW1P
	__PUTW1MN _glcd_state,4
	ADIW R26,2
	CALL __GETW1P
	__PUTW1MN _glcd_state,25
	LDD  R26,Y+4
	LDD  R27,Y+4+1
	ADIW R26,4
	CALL __GETW1P
	RJMP _0x20200A0
_0x2020008:
	LDI  R17,LOW(0)
	LDI  R16,LOW(3)
	LDI  R19,LOW(50)
	LDI  R30,LOW(0)
	LDI  R31,HIGH(0)
	__PUTW1MN _glcd_state,4
	__PUTW1MN _glcd_state,25
_0x20200A0:
	__PUTW1MN _glcd_state,27
	LDI  R26,LOW(33)
	RCALL _pcd8544_wrcmd
	MOV  R30,R17
	ORI  R30,4
	MOV  R26,R30
	RCALL _pcd8544_wrcmd
	MOV  R30,R16
	ORI  R30,0x10
	MOV  R26,R30
	RCALL _pcd8544_wrcmd
	MOV  R30,R19
	ORI  R30,0x80
	MOV  R26,R30
	RCALL _pcd8544_wrcmd
	LDI  R26,LOW(32)
	RCALL _pcd8544_wrcmd
	LDI  R26,LOW(1)
	RCALL _glcd_display
	LDI  R30,LOW(1)
	STS  _glcd_state,R30
	LDI  R30,LOW(0)
	__PUTB1MN _glcd_state,1
	LDI  R30,LOW(1)
	__PUTB1MN _glcd_state,6
	__PUTB1MN _glcd_state,7
	__PUTB1MN _glcd_state,8
	LDI  R30,LOW(255)
	__PUTB1MN _glcd_state,9
	LDI  R30,LOW(1)
	__PUTB1MN _glcd_state,16
	__POINTW1MN _glcd_state,17
	ST   -Y,R31
	ST   -Y,R30
	LDI  R30,LOW(255)
	ST   -Y,R30
	LDI  R26,LOW(8)
	LDI  R27,0
	CALL _memset
	RCALL _glcd_clear
	LDI  R30,LOW(1)
	CALL __LOADLOCR4
	RJMP _0x2120006
; .FEND
_glcd_display:
; .FSTART _glcd_display
	ST   -Y,R26
	LD   R30,Y
	CPI  R30,0
	BREQ _0x202000A
	LDI  R30,LOW(12)
	RJMP _0x202000B
_0x202000A:
	LDI  R30,LOW(8)
_0x202000B:
	MOV  R26,R30
	RCALL _pcd8544_wrcmd
_0x2120007:
	ADIW R28,1
	RET
; .FEND
_glcd_clear:
; .FSTART _glcd_clear
	CALL __SAVELOCR4
	LDI  R19,0
	__GETB1MN _glcd_state,1
	CPI  R30,0
	BREQ _0x202000D
	LDI  R19,LOW(255)
_0x202000D:
	LDI  R30,LOW(0)
	ST   -Y,R30
	LDI  R26,LOW(0)
	RCALL _pcd8544_gotoxy
	__GETWRN 16,17,504
_0x202000E:
	MOVW R30,R16
	__SUBWRN 16,17,1
	SBIW R30,0
	BREQ _0x2020010
	MOV  R26,R19
	RCALL _pcd8544_wrbyte
	RJMP _0x202000E
_0x2020010:
	LDI  R30,LOW(0)
	ST   -Y,R30
	LDI  R26,LOW(0)
	RCALL _glcd_moveto
	CALL __LOADLOCR4
	JMP  _0x2120001
; .FEND
_pcd8544_wrmasked_G101:
; .FSTART _pcd8544_wrmasked_G101
	ST   -Y,R26
	ST   -Y,R17
	LDD  R30,Y+5
	ST   -Y,R30
	LDD  R26,Y+5
	RCALL _pcd8544_rdbyte
	MOV  R17,R30
	LDD  R30,Y+1
	CPI  R30,LOW(0x7)
	BREQ _0x2020020
	CPI  R30,LOW(0x8)
	BRNE _0x2020021
_0x2020020:
	LDD  R30,Y+3
	ST   -Y,R30
	LDD  R26,Y+2
	CALL _glcd_mappixcolor1bit
	STD  Y+3,R30
	RJMP _0x2020022
_0x2020021:
	CPI  R30,LOW(0x3)
	BRNE _0x2020024
	LDD  R30,Y+3
	COM  R30
	STD  Y+3,R30
	RJMP _0x2020025
_0x2020024:
	CPI  R30,0
	BRNE _0x2020026
_0x2020025:
_0x2020022:
	LDD  R30,Y+2
	COM  R30
	AND  R17,R30
	RJMP _0x2020027
_0x2020026:
	CPI  R30,LOW(0x2)
	BRNE _0x2020028
_0x2020027:
	LDD  R30,Y+2
	LDD  R26,Y+3
	AND  R30,R26
	OR   R17,R30
	RJMP _0x202001E
_0x2020028:
	CPI  R30,LOW(0x1)
	BRNE _0x2020029
	LDD  R30,Y+2
	LDD  R26,Y+3
	AND  R30,R26
	EOR  R17,R30
	RJMP _0x202001E
_0x2020029:
	CPI  R30,LOW(0x4)
	BRNE _0x202001E
	LDD  R30,Y+2
	COM  R30
	LDD  R26,Y+3
	OR   R30,R26
	AND  R17,R30
_0x202001E:
	MOV  R26,R17
	RCALL _pcd8544_wrbyte
	LDD  R17,Y+0
_0x2120006:
	ADIW R28,6
	RET
; .FEND
_glcd_block:
; .FSTART _glcd_block
	ST   -Y,R26
	SBIW R28,3
	CALL __SAVELOCR6
	LDD  R26,Y+16
	CPI  R26,LOW(0x54)
	BRSH _0x202002C
	LDD  R26,Y+15
	CPI  R26,LOW(0x30)
	BRSH _0x202002C
	LDD  R26,Y+14
	CPI  R26,LOW(0x0)
	BREQ _0x202002C
	LDD  R26,Y+13
	CPI  R26,LOW(0x0)
	BRNE _0x202002B
_0x202002C:
	RJMP _0x2120005
_0x202002B:
	LDD  R30,Y+14
	STD  Y+8,R30
	LDD  R26,Y+16
	CLR  R27
	LDD  R30,Y+14
	LDI  R31,0
	ADD  R26,R30
	ADC  R27,R31
	CPI  R26,LOW(0x55)
	LDI  R30,HIGH(0x55)
	CPC  R27,R30
	BRLO _0x202002E
	LDD  R26,Y+16
	LDI  R30,LOW(84)
	SUB  R30,R26
	STD  Y+14,R30
_0x202002E:
	LDD  R18,Y+13
	LDD  R26,Y+15
	CLR  R27
	LDD  R30,Y+13
	LDI  R31,0
	ADD  R26,R30
	ADC  R27,R31
	SBIW R26,49
	BRLO _0x202002F
	LDD  R26,Y+15
	LDI  R30,LOW(48)
	SUB  R30,R26
	STD  Y+13,R30
_0x202002F:
	LDD  R26,Y+9
	CPI  R26,LOW(0x6)
	BREQ PC+2
	RJMP _0x2020030
	LDD  R30,Y+12
	CPI  R30,LOW(0x1)
	BRNE _0x2020034
	RJMP _0x2120005
_0x2020034:
	CPI  R30,LOW(0x3)
	BRNE _0x2020037
	__GETW1MN _glcd_state,27
	SBIW R30,0
	BRNE _0x2020036
	RJMP _0x2120005
_0x2020036:
_0x2020037:
	LDD  R16,Y+8
	LDD  R30,Y+13
	LSR  R30
	LSR  R30
	LSR  R30
	MOV  R19,R30
	MOV  R30,R18
	ANDI R30,LOW(0x7)
	BRNE _0x2020039
	LDD  R26,Y+13
	CP   R18,R26
	BREQ _0x2020038
_0x2020039:
	MOV  R26,R16
	CLR  R27
	MOV  R30,R19
	LDI  R31,0
	CALL __MULW12U
	LDD  R26,Y+10
	LDD  R27,Y+10+1
	CALL SUBOPT_0x5
	LSR  R18
	LSR  R18
	LSR  R18
	MOV  R21,R19
_0x202003B:
	PUSH R21
	SUBI R21,-1
	MOV  R30,R18
	POP  R26
	CP   R30,R26
	BRLO _0x202003D
	MOV  R17,R16
_0x202003E:
	MOV  R30,R17
	SUBI R17,1
	CPI  R30,0
	BREQ _0x2020040
	CALL SUBOPT_0x6
	RJMP _0x202003E
_0x2020040:
	RJMP _0x202003B
_0x202003D:
_0x2020038:
	LDD  R26,Y+14
	CP   R16,R26
	BREQ _0x2020041
	LDD  R30,Y+14
	LDD  R26,Y+10
	LDD  R27,Y+10+1
	LDI  R31,0
	CALL SUBOPT_0x5
	LDD  R30,Y+13
	ANDI R30,LOW(0x7)
	BREQ _0x2020042
	SUBI R19,-LOW(1)
_0x2020042:
	LDI  R18,LOW(0)
_0x2020043:
	PUSH R18
	SUBI R18,-1
	MOV  R30,R19
	POP  R26
	CP   R26,R30
	BRSH _0x2020045
	LDD  R17,Y+14
_0x2020046:
	PUSH R17
	SUBI R17,-1
	MOV  R30,R16
	POP  R26
	CP   R26,R30
	BRSH _0x2020048
	CALL SUBOPT_0x6
	RJMP _0x2020046
_0x2020048:
	LDD  R30,Y+14
	LDD  R26,Y+6
	LDD  R27,Y+6+1
	LDI  R31,0
	CALL SUBOPT_0x5
	RJMP _0x2020043
_0x2020045:
_0x2020041:
_0x2020030:
	LDD  R30,Y+15
	ANDI R30,LOW(0x7)
	MOV  R19,R30
_0x2020049:
	LDD  R30,Y+13
	CPI  R30,0
	BRNE PC+2
	RJMP _0x202004B
	LDD  R30,Y+10
	LDD  R31,Y+10+1
	STD  Y+6,R30
	STD  Y+6+1,R31
	LDI  R17,LOW(0)
	LDD  R16,Y+16
	CPI  R19,0
	BREQ PC+2
	RJMP _0x202004C
	LDD  R26,Y+13
	CPI  R26,LOW(0x8)
	BRSH PC+2
	RJMP _0x202004D
	LDD  R30,Y+9
	CPI  R30,0
	BREQ _0x2020052
	CPI  R30,LOW(0x3)
	BRNE _0x2020053
_0x2020052:
	RJMP _0x2020054
_0x2020053:
	CPI  R30,LOW(0x7)
	BRNE _0x2020055
_0x2020054:
	RJMP _0x2020056
_0x2020055:
	CPI  R30,LOW(0x8)
	BRNE _0x2020057
_0x2020056:
	RJMP _0x2020058
_0x2020057:
	CPI  R30,LOW(0x9)
	BRNE _0x2020059
_0x2020058:
	RJMP _0x202005A
_0x2020059:
	CPI  R30,LOW(0xA)
	BRNE _0x202005B
_0x202005A:
	ST   -Y,R16
	LDD  R26,Y+16
	RCALL _pcd8544_gotoxy
	RJMP _0x2020050
_0x202005B:
	CPI  R30,LOW(0x6)
	BRNE _0x2020050
	CALL SUBOPT_0x7
_0x2020050:
_0x202005D:
	PUSH R17
	SUBI R17,-1
	LDD  R30,Y+14
	POP  R26
	CP   R26,R30
	BRSH _0x202005F
	LDD  R26,Y+9
	CPI  R26,LOW(0x6)
	BRNE _0x2020060
	CALL SUBOPT_0x8
	ST   -Y,R31
	ST   -Y,R30
	CALL SUBOPT_0x4
	LD   R26,Z
	CALL _glcd_writemem
	RJMP _0x2020061
_0x2020060:
	LDD  R30,Y+9
	CPI  R30,LOW(0x9)
	BRNE _0x2020065
	LDI  R21,LOW(0)
	RJMP _0x2020066
_0x2020065:
	CPI  R30,LOW(0xA)
	BRNE _0x2020064
	LDI  R21,LOW(255)
	RJMP _0x2020066
_0x2020064:
	CALL SUBOPT_0x8
	CALL SUBOPT_0x9
	MOV  R21,R30
	LDD  R30,Y+9
	CPI  R30,LOW(0x7)
	BREQ _0x202006D
	CPI  R30,LOW(0x8)
	BRNE _0x202006E
_0x202006D:
_0x2020066:
	CALL SUBOPT_0xA
	MOV  R21,R30
	RJMP _0x202006F
_0x202006E:
	CPI  R30,LOW(0x3)
	BRNE _0x2020071
	COM  R21
	RJMP _0x2020072
_0x2020071:
	CPI  R30,0
	BRNE _0x2020074
_0x2020072:
_0x202006F:
	MOV  R26,R21
	RCALL _pcd8544_wrdata_G101
	RJMP _0x202006B
_0x2020074:
	CALL SUBOPT_0xB
	LDI  R30,LOW(255)
	ST   -Y,R30
	LDD  R26,Y+13
	RCALL _pcd8544_wrmasked_G101
_0x202006B:
_0x2020061:
	RJMP _0x202005D
_0x202005F:
	LDD  R30,Y+15
	SUBI R30,-LOW(8)
	STD  Y+15,R30
	LDD  R30,Y+13
	SUBI R30,LOW(8)
	STD  Y+13,R30
	RJMP _0x2020075
_0x202004D:
	LDD  R21,Y+13
	LDI  R18,LOW(0)
	LDI  R30,LOW(0)
	STD  Y+13,R30
	RJMP _0x2020076
_0x202004C:
	MOV  R30,R19
	LDD  R26,Y+13
	ADD  R26,R30
	CPI  R26,LOW(0x9)
	BRSH _0x2020077
	LDD  R18,Y+13
	LDI  R30,LOW(0)
	STD  Y+13,R30
	RJMP _0x2020078
_0x2020077:
	LDI  R30,LOW(8)
	SUB  R30,R19
	MOV  R18,R30
_0x2020078:
	ST   -Y,R19
	MOV  R26,R18
	CALL _glcd_getmask
	MOV  R20,R30
	LDD  R30,Y+9
	CPI  R30,LOW(0x6)
	BRNE _0x202007C
	CALL SUBOPT_0x7
_0x202007D:
	PUSH R17
	SUBI R17,-1
	LDD  R30,Y+14
	POP  R26
	CP   R26,R30
	BRSH _0x202007F
	CALL SUBOPT_0x4
	LD   R30,Z
	AND  R30,R20
	MOV  R26,R30
	MOV  R30,R19
	CALL __LSRB12
	CALL SUBOPT_0xC
	MOV  R30,R19
	MOV  R26,R20
	CALL __LSRB12
	COM  R30
	AND  R30,R1
	OR   R21,R30
	CALL SUBOPT_0x8
	ST   -Y,R31
	ST   -Y,R30
	MOV  R26,R21
	CALL _glcd_writemem
	RJMP _0x202007D
_0x202007F:
	RJMP _0x202007B
_0x202007C:
	CPI  R30,LOW(0x9)
	BRNE _0x2020080
	LDI  R21,LOW(0)
	RJMP _0x2020081
_0x2020080:
	CPI  R30,LOW(0xA)
	BRNE _0x2020087
	LDI  R21,LOW(255)
_0x2020081:
	CALL SUBOPT_0xA
	MOV  R26,R30
	MOV  R30,R19
	CALL __LSLB12
	MOV  R21,R30
_0x2020084:
	PUSH R17
	SUBI R17,-1
	LDD  R30,Y+14
	POP  R26
	CP   R26,R30
	BRSH _0x2020086
	CALL SUBOPT_0xB
	ST   -Y,R20
	LDI  R26,LOW(0)
	RCALL _pcd8544_wrmasked_G101
	RJMP _0x2020084
_0x2020086:
	RJMP _0x202007B
_0x2020087:
_0x2020088:
	PUSH R17
	SUBI R17,-1
	LDD  R30,Y+14
	POP  R26
	CP   R26,R30
	BRSH _0x202008A
	CALL SUBOPT_0xD
	MOV  R26,R30
	MOV  R30,R19
	CALL __LSLB12
	ST   -Y,R30
	ST   -Y,R20
	LDD  R26,Y+13
	RCALL _pcd8544_wrmasked_G101
	RJMP _0x2020088
_0x202008A:
_0x202007B:
	LDD  R30,Y+13
	CPI  R30,0
	BRNE _0x202008B
	RJMP _0x202004B
_0x202008B:
	LDD  R26,Y+13
	CPI  R26,LOW(0x8)
	BRSH _0x202008C
	LDD  R30,Y+13
	SUB  R30,R18
	MOV  R21,R30
	LDI  R30,LOW(0)
	RJMP _0x20200A1
_0x202008C:
	MOV  R21,R19
	LDD  R30,Y+13
	SUBI R30,LOW(8)
_0x20200A1:
	STD  Y+13,R30
	LDI  R17,LOW(0)
	LDD  R30,Y+15
	SUBI R30,-LOW(8)
	STD  Y+15,R30
	LDI  R30,LOW(8)
	SUB  R30,R19
	MOV  R18,R30
	LDD  R16,Y+16
	LDD  R30,Y+10
	LDD  R31,Y+10+1
	STD  Y+6,R30
	STD  Y+6+1,R31
_0x2020076:
	MOV  R30,R21
	LDI  R31,0
	SUBI R30,LOW(-__glcd_mask*2)
	SBCI R31,HIGH(-__glcd_mask*2)
	LPM  R20,Z
	LDD  R30,Y+9
	CPI  R30,LOW(0x6)
	BRNE _0x2020091
	CALL SUBOPT_0x7
_0x2020092:
	PUSH R17
	SUBI R17,-1
	LDD  R30,Y+14
	POP  R26
	CP   R26,R30
	BRSH _0x2020094
	CALL SUBOPT_0x4
	LD   R30,Z
	AND  R30,R20
	MOV  R26,R30
	MOV  R30,R18
	CALL __LSLB12
	CALL SUBOPT_0xC
	MOV  R30,R18
	MOV  R26,R20
	CALL __LSLB12
	COM  R30
	AND  R30,R1
	OR   R21,R30
	CALL SUBOPT_0x8
	ST   -Y,R31
	ST   -Y,R30
	MOV  R26,R21
	CALL _glcd_writemem
	RJMP _0x2020092
_0x2020094:
	RJMP _0x2020090
_0x2020091:
	CPI  R30,LOW(0x9)
	BRNE _0x2020095
	LDI  R21,LOW(0)
	RJMP _0x2020096
_0x2020095:
	CPI  R30,LOW(0xA)
	BRNE _0x202009C
	LDI  R21,LOW(255)
_0x2020096:
	CALL SUBOPT_0xA
	MOV  R26,R30
	MOV  R30,R18
	CALL __LSRB12
	MOV  R21,R30
_0x2020099:
	PUSH R17
	SUBI R17,-1
	LDD  R30,Y+14
	POP  R26
	CP   R26,R30
	BRSH _0x202009B
	CALL SUBOPT_0xB
	ST   -Y,R20
	LDI  R26,LOW(0)
	RCALL _pcd8544_wrmasked_G101
	RJMP _0x2020099
_0x202009B:
	RJMP _0x2020090
_0x202009C:
_0x202009D:
	PUSH R17
	SUBI R17,-1
	LDD  R30,Y+14
	POP  R26
	CP   R26,R30
	BRSH _0x202009F
	CALL SUBOPT_0xD
	MOV  R26,R30
	MOV  R30,R18
	CALL __LSRB12
	ST   -Y,R30
	ST   -Y,R20
	LDD  R26,Y+13
	RCALL _pcd8544_wrmasked_G101
	RJMP _0x202009D
_0x202009F:
_0x2020090:
_0x2020075:
	LDD  R30,Y+8
	LDD  R26,Y+10
	LDD  R27,Y+10+1
	LDI  R31,0
	ADD  R30,R26
	ADC  R31,R27
	STD  Y+10,R30
	STD  Y+10+1,R31
	RJMP _0x2020049
_0x202004B:
_0x2120005:
	CALL __LOADLOCR6
	ADIW R28,17
	RET
; .FEND

	.CSEG
_glcd_clipx:
; .FSTART _glcd_clipx
	CALL SUBOPT_0xE
	BRLT _0x2040003
	LDI  R30,LOW(0)
	LDI  R31,HIGH(0)
	RJMP _0x2120003
_0x2040003:
	LD   R26,Y
	LDD  R27,Y+1
	CPI  R26,LOW(0x54)
	LDI  R30,HIGH(0x54)
	CPC  R27,R30
	BRLT _0x2040004
	LDI  R30,LOW(83)
	LDI  R31,HIGH(83)
	RJMP _0x2120003
_0x2040004:
	LD   R30,Y
	LDD  R31,Y+1
	RJMP _0x2120003
; .FEND
_glcd_clipy:
; .FSTART _glcd_clipy
	CALL SUBOPT_0xE
	BRLT _0x2040005
	LDI  R30,LOW(0)
	LDI  R31,HIGH(0)
	RJMP _0x2120003
_0x2040005:
	LD   R26,Y
	LDD  R27,Y+1
	SBIW R26,48
	BRLT _0x2040006
	LDI  R30,LOW(47)
	LDI  R31,HIGH(47)
	RJMP _0x2120003
_0x2040006:
	LD   R30,Y
	LDD  R31,Y+1
	RJMP _0x2120003
; .FEND
_glcd_imagesize:
; .FSTART _glcd_imagesize
	ST   -Y,R26
	ST   -Y,R17
	LDD  R26,Y+2
	CPI  R26,LOW(0x54)
	BRSH _0x2040008
	LDD  R26,Y+1
	CPI  R26,LOW(0x30)
	BRLO _0x2040007
_0x2040008:
	__GETD1N 0x0
	LDD  R17,Y+0
	RJMP _0x2120002
_0x2040007:
	LDD  R30,Y+1
	ANDI R30,LOW(0x7)
	MOV  R17,R30
	LDD  R30,Y+1
	LSR  R30
	LSR  R30
	LSR  R30
	STD  Y+1,R30
	CPI  R17,0
	BREQ _0x204000A
	SUBI R30,-LOW(1)
	STD  Y+1,R30
_0x204000A:
	LDD  R26,Y+2
	CLR  R27
	CLR  R24
	CLR  R25
	LDD  R30,Y+1
	CLR  R31
	CLR  R22
	CLR  R23
	CALL __MULD12U
	__ADDD1N 4
	LDD  R17,Y+0
	RJMP _0x2120002
; .FEND
_glcd_putimagef:
; .FSTART _glcd_putimagef
	ST   -Y,R26
	CALL __SAVELOCR4
	LDD  R26,Y+4
	CPI  R26,LOW(0x5)
	BRSH _0x2040038
	LDD  R30,Y+5
	LDD  R31,Y+5+1
	LPM  R16,Z+
	CALL SUBOPT_0xF
	LPM  R17,Z+
	CALL SUBOPT_0xF
	LPM  R18,Z+
	CALL SUBOPT_0xF
	LPM  R19,Z+
	STD  Y+5,R30
	STD  Y+5+1,R31
	LDD  R30,Y+8
	ST   -Y,R30
	LDD  R30,Y+8
	ST   -Y,R30
	ST   -Y,R16
	ST   -Y,R18
	LDI  R30,LOW(1)
	ST   -Y,R30
	LDD  R30,Y+10
	LDD  R31,Y+10+1
	ST   -Y,R31
	ST   -Y,R30
	LDD  R26,Y+11
	RCALL _glcd_block
	ST   -Y,R16
	MOV  R26,R18
	RCALL _glcd_imagesize
	RJMP _0x2120004
_0x2040038:
	__GETD1N 0x0
_0x2120004:
	CALL __LOADLOCR4
	ADIW R28,9
	RET
; .FEND
_glcd_moveto:
; .FSTART _glcd_moveto
	ST   -Y,R26
	LDD  R26,Y+1
	CLR  R27
	RCALL _glcd_clipx
	__PUTB1MN _glcd_state,2
	LD   R26,Y
	CLR  R27
	RCALL _glcd_clipy
	__PUTB1MN _glcd_state,3
	RJMP _0x2120003
; .FEND

	.CSEG

	.DSEG

	.CSEG

	.CSEG

	.CSEG
_memset:
; .FSTART _memset
	ST   -Y,R27
	ST   -Y,R26
    ldd  r27,y+1
    ld   r26,y
    adiw r26,0
    breq memset1
    ldd  r31,y+4
    ldd  r30,y+3
    ldd  r22,y+2
memset0:
    st   z+,r22
    sbiw r26,1
    brne memset0
memset1:
    ldd  r30,y+3
    ldd  r31,y+4
	ADIW R28,5
	RET
; .FEND

	.CSEG
_glcd_getmask:
; .FSTART _glcd_getmask
	ST   -Y,R26
	LD   R30,Y
	LDI  R31,0
	SUBI R30,LOW(-__glcd_mask*2)
	SBCI R31,HIGH(-__glcd_mask*2)
	LPM  R26,Z
	LDD  R30,Y+1
	CALL __LSLB12
_0x2120003:
	ADIW R28,2
	RET
; .FEND
_glcd_mappixcolor1bit:
; .FSTART _glcd_mappixcolor1bit
	ST   -Y,R26
	ST   -Y,R17
	LDD  R30,Y+1
	CPI  R30,LOW(0x7)
	BREQ _0x20E0007
	CPI  R30,LOW(0xA)
	BRNE _0x20E0008
_0x20E0007:
	LDS  R17,_glcd_state
	RJMP _0x20E0009
_0x20E0008:
	CPI  R30,LOW(0x9)
	BRNE _0x20E000B
	__GETBRMN 17,_glcd_state,1
	RJMP _0x20E0009
_0x20E000B:
	CPI  R30,LOW(0x8)
	BRNE _0x20E0005
	__GETBRMN 17,_glcd_state,16
_0x20E0009:
	__GETB1MN _glcd_state,1
	CPI  R30,0
	BREQ _0x20E000E
	CPI  R17,0
	BREQ _0x20E000F
	LDI  R30,LOW(255)
	LDD  R17,Y+0
	RJMP _0x2120002
_0x20E000F:
	LDD  R30,Y+2
	COM  R30
	LDD  R17,Y+0
	RJMP _0x2120002
_0x20E000E:
	CPI  R17,0
	BRNE _0x20E0011
	LDI  R30,LOW(0)
	LDD  R17,Y+0
	RJMP _0x2120002
_0x20E0011:
_0x20E0005:
	LDD  R30,Y+2
	LDD  R17,Y+0
	RJMP _0x2120002
; .FEND
_glcd_readmem:
; .FSTART _glcd_readmem
	ST   -Y,R27
	ST   -Y,R26
	LDD  R30,Y+2
	CPI  R30,LOW(0x1)
	BRNE _0x20E0015
	LD   R30,Y
	LDD  R31,Y+1
	LPM  R30,Z
	RJMP _0x2120002
_0x20E0015:
	CPI  R30,LOW(0x2)
	BRNE _0x20E0016
	LD   R26,Y
	LDD  R27,Y+1
	CALL __EEPROMRDB
	RJMP _0x2120002
_0x20E0016:
	CPI  R30,LOW(0x3)
	BRNE _0x20E0018
	LD   R26,Y
	LDD  R27,Y+1
	__CALL1MN _glcd_state,25
	RJMP _0x2120002
_0x20E0018:
	LD   R26,Y
	LDD  R27,Y+1
	LD   R30,X
_0x2120002:
	ADIW R28,3
	RET
; .FEND
_glcd_writemem:
; .FSTART _glcd_writemem
	ST   -Y,R26
	LDD  R30,Y+3
	CPI  R30,0
	BRNE _0x20E001C
	LD   R30,Y
	LDD  R26,Y+1
	LDD  R27,Y+1+1
	ST   X,R30
	RJMP _0x20E001B
_0x20E001C:
	CPI  R30,LOW(0x2)
	BRNE _0x20E001D
	LD   R30,Y
	LDD  R26,Y+1
	LDD  R27,Y+1+1
	CALL __EEPROMWRB
	RJMP _0x20E001B
_0x20E001D:
	CPI  R30,LOW(0x3)
	BRNE _0x20E001B
	LDD  R30,Y+1
	LDD  R31,Y+1+1
	ST   -Y,R31
	ST   -Y,R30
	LDD  R26,Y+2
	__CALL1MN _glcd_state,27
_0x20E001B:
_0x2120001:
	ADIW R28,4
	RET
; .FEND

	.CSEG

	.DSEG
_glcd_state:
	.BYTE 0x1D
_station_receive:
	.BYTE 0xA
_tay_cam_receive:
	.BYTE 0x8
_data_receive:
	.BYTE 0x12
_dem:
	.BYTE 0x4
_gfx_addr_G101:
	.BYTE 0x2
_gfx_buffer_G101:
	.BYTE 0x1F8
__seed_G104:
	.BYTE 0x4

	.CSEG
;OPTIMIZER ADDED SUBROUTINE, CALLED 2 TIMES, CODE SIZE REDUCTION:12 WORDS
SUBOPT_0x0:
	__DELAY_USB 13
	LDD  R30,Y+1
	LSL  R30
	STD  Y+1,R30
	SBI  0x12,5
	__DELAY_USB 13
	LDI  R30,0
	SBIC 0x10,3
	LDI  R30,1
	LDD  R26,Y+1
	OR   R30,R26
	STD  Y+1,R30
	CBI  0x12,5
	RET

;OPTIMIZER ADDED SUBROUTINE, CALLED 3 TIMES, CODE SIZE REDUCTION:3 WORDS
SUBOPT_0x1:
	ST   -Y,R26
	CBI  0x12,6
	LDD  R30,Y+1
	ORI  R30,0x20
	MOV  R26,R30
	RET

;OPTIMIZER ADDED SUBROUTINE, CALLED 5 TIMES, CODE SIZE REDUCTION:5 WORDS
SUBOPT_0x2:
	SBI  0x12,6
	__DELAY_USB 27
	RET

;OPTIMIZER ADDED SUBROUTINE, CALLED 4 TIMES, CODE SIZE REDUCTION:6 WORDS
SUBOPT_0x3:
	CALL _SPI_RW_RX
	LD   R26,Y
	JMP  _SPI_RW_RX

;OPTIMIZER ADDED SUBROUTINE, CALLED 4 TIMES, CODE SIZE REDUCTION:21 WORDS
SUBOPT_0x4:
	LDI  R26,LOW(_gfx_addr_G101)
	LDI  R27,HIGH(_gfx_addr_G101)
	LD   R30,X+
	LD   R31,X+
	ADIW R30,1
	ST   -X,R31
	ST   -X,R30
	SBIW R30,1
	SUBI R30,LOW(-_gfx_buffer_G101)
	SBCI R31,HIGH(-_gfx_buffer_G101)
	RET

;OPTIMIZER ADDED SUBROUTINE, CALLED 3 TIMES, CODE SIZE REDUCTION:1 WORDS
SUBOPT_0x5:
	ADD  R30,R26
	ADC  R31,R27
	STD  Y+6,R30
	STD  Y+6+1,R31
	RET

;OPTIMIZER ADDED SUBROUTINE, CALLED 2 TIMES, CODE SIZE REDUCTION:8 WORDS
SUBOPT_0x6:
	LDD  R30,Y+12
	ST   -Y,R30
	LDD  R30,Y+7
	LDD  R31,Y+7+1
	ADIW R30,1
	STD  Y+7,R30
	STD  Y+7+1,R31
	SBIW R30,1
	ST   -Y,R31
	ST   -Y,R30
	LDI  R26,LOW(0)
	JMP  _glcd_writemem

;OPTIMIZER ADDED SUBROUTINE, CALLED 3 TIMES, CODE SIZE REDUCTION:1 WORDS
SUBOPT_0x7:
	ST   -Y,R16
	LDD  R26,Y+16
	JMP  _pcd8544_setaddr_G101

;OPTIMIZER ADDED SUBROUTINE, CALLED 4 TIMES, CODE SIZE REDUCTION:15 WORDS
SUBOPT_0x8:
	LDD  R30,Y+12
	ST   -Y,R30
	LDD  R30,Y+7
	LDD  R31,Y+7+1
	ADIW R30,1
	STD  Y+7,R30
	STD  Y+7+1,R31
	SBIW R30,1
	RET

;OPTIMIZER ADDED SUBROUTINE, CALLED 3 TIMES, CODE SIZE REDUCTION:5 WORDS
SUBOPT_0x9:
	CLR  R22
	CLR  R23
	MOVW R26,R30
	MOVW R24,R22
	JMP  _glcd_readmem

;OPTIMIZER ADDED SUBROUTINE, CALLED 3 TIMES, CODE SIZE REDUCTION:1 WORDS
SUBOPT_0xA:
	ST   -Y,R21
	LDD  R26,Y+10
	JMP  _glcd_mappixcolor1bit

;OPTIMIZER ADDED SUBROUTINE, CALLED 3 TIMES, CODE SIZE REDUCTION:3 WORDS
SUBOPT_0xB:
	ST   -Y,R16
	INC  R16
	LDD  R30,Y+16
	ST   -Y,R30
	ST   -Y,R21
	RET

;OPTIMIZER ADDED SUBROUTINE, CALLED 2 TIMES, CODE SIZE REDUCTION:5 WORDS
SUBOPT_0xC:
	MOV  R21,R30
	LDD  R30,Y+12
	ST   -Y,R30
	LDD  R26,Y+7
	LDD  R27,Y+7+1
	CLR  R24
	CLR  R25
	CALL _glcd_readmem
	MOV  R1,R30
	RET

;OPTIMIZER ADDED SUBROUTINE, CALLED 2 TIMES, CODE SIZE REDUCTION:9 WORDS
SUBOPT_0xD:
	ST   -Y,R16
	INC  R16
	LDD  R30,Y+16
	ST   -Y,R30
	LDD  R30,Y+14
	ST   -Y,R30
	LDD  R30,Y+9
	LDD  R31,Y+9+1
	ADIW R30,1
	STD  Y+9,R30
	STD  Y+9+1,R31
	SBIW R30,1
	RJMP SUBOPT_0x9

;OPTIMIZER ADDED SUBROUTINE, CALLED 2 TIMES, CODE SIZE REDUCTION:1 WORDS
SUBOPT_0xE:
	ST   -Y,R27
	ST   -Y,R26
	LD   R26,Y
	LDD  R27,Y+1
	CALL __CPW02
	RET

;OPTIMIZER ADDED SUBROUTINE, CALLED 3 TIMES, CODE SIZE REDUCTION:1 WORDS
SUBOPT_0xF:
	STD  Y+5,R30
	STD  Y+5+1,R31
	RET


	.CSEG
_delay_ms:
	adiw r26,0
	breq __delay_ms1
__delay_ms0:
	__DELAY_USW 0x7D0
	wdr
	sbiw r26,1
	brne __delay_ms0
__delay_ms1:
	ret

__LSLB12:
	TST  R30
	MOV  R0,R30
	MOV  R30,R26
	BREQ __LSLB12R
__LSLB12L:
	LSL  R30
	DEC  R0
	BRNE __LSLB12L
__LSLB12R:
	RET

__LSRB12:
	TST  R30
	MOV  R0,R30
	MOV  R30,R26
	BREQ __LSRB12R
__LSRB12L:
	LSR  R30
	DEC  R0
	BRNE __LSRB12L
__LSRB12R:
	RET

__MULW12U:
	MUL  R31,R26
	MOV  R31,R0
	MUL  R30,R27
	ADD  R31,R0
	MUL  R30,R26
	MOV  R30,R0
	ADD  R31,R1
	RET

__MULD12U:
	MUL  R23,R26
	MOV  R23,R0
	MUL  R22,R27
	ADD  R23,R0
	MUL  R31,R24
	ADD  R23,R0
	MUL  R30,R25
	ADD  R23,R0
	MUL  R22,R26
	MOV  R22,R0
	ADD  R23,R1
	MUL  R31,R27
	ADD  R22,R0
	ADC  R23,R1
	MUL  R30,R24
	ADD  R22,R0
	ADC  R23,R1
	CLR  R24
	MUL  R31,R26
	MOV  R31,R0
	ADD  R22,R1
	ADC  R23,R24
	MUL  R30,R27
	ADD  R31,R0
	ADC  R22,R1
	ADC  R23,R24
	MUL  R30,R26
	MOV  R30,R0
	ADD  R31,R1
	ADC  R22,R24
	ADC  R23,R24
	RET

__GETW1P:
	LD   R30,X+
	LD   R31,X
	SBIW R26,1
	RET

__GETD1P_INC:
	LD   R30,X+
	LD   R31,X+
	LD   R22,X+
	LD   R23,X+
	RET

__PUTDP1_DEC:
	ST   -X,R23
	ST   -X,R22
	ST   -X,R31
	ST   -X,R30
	RET

__EEPROMRDB:
	SBIC EECR,EEWE
	RJMP __EEPROMRDB
	PUSH R31
	IN   R31,SREG
	CLI
	OUT  EEARL,R26
	OUT  EEARH,R27
	SBI  EECR,EERE
	IN   R30,EEDR
	OUT  SREG,R31
	POP  R31
	RET

__EEPROMWRB:
	SBIS EECR,EEWE
	RJMP __EEPROMWRB1
	WDR
	RJMP __EEPROMWRB
__EEPROMWRB1:
	IN   R25,SREG
	CLI
	OUT  EEARL,R26
	OUT  EEARH,R27
	SBI  EECR,EERE
	IN   R24,EEDR
	CP   R30,R24
	BREQ __EEPROMWRB0
	OUT  EEDR,R30
	SBI  EECR,EEMWE
	SBI  EECR,EEWE
__EEPROMWRB0:
	OUT  SREG,R25
	RET

__CPW02:
	CLR  R0
	CP   R0,R26
	CPC  R0,R27
	RET

__SAVELOCR6:
	ST   -Y,R21
__SAVELOCR5:
	ST   -Y,R20
__SAVELOCR4:
	ST   -Y,R19
__SAVELOCR3:
	ST   -Y,R18
__SAVELOCR2:
	ST   -Y,R17
	ST   -Y,R16
	RET

__LOADLOCR6:
	LDD  R21,Y+5
__LOADLOCR5:
	LDD  R20,Y+4
__LOADLOCR4:
	LDD  R19,Y+3
__LOADLOCR3:
	LDD  R18,Y+2
__LOADLOCR2:
	LDD  R17,Y+1
	LD   R16,Y
	RET

;END OF CODE MARKER
__END_OF_CODE:
