
AVRASM ver. 2.1.30  D:\Dropbox\2019\Project\he thong dieu khien anh sang trong nha kinh\code\center\Debug\List\station.asm Sat May 11 16:47:45 2019

D:\Dropbox\2019\Project\he thong dieu khien anh sang trong nha kinh\code\center\Debug\List\station.asm(1087): warning: Register r5 already defined by the .DEF directive
D:\Dropbox\2019\Project\he thong dieu khien anh sang trong nha kinh\code\center\Debug\List\station.asm(1088): warning: Register r4 already defined by the .DEF directive
D:\Dropbox\2019\Project\he thong dieu khien anh sang trong nha kinh\code\center\Debug\List\station.asm(1089): warning: Register r7 already defined by the .DEF directive
D:\Dropbox\2019\Project\he thong dieu khien anh sang trong nha kinh\code\center\Debug\List\station.asm(1090): warning: Register r8 already defined by the .DEF directive
D:\Dropbox\2019\Project\he thong dieu khien anh sang trong nha kinh\code\center\Debug\List\station.asm(1091): warning: Register r9 already defined by the .DEF directive
D:\Dropbox\2019\Project\he thong dieu khien anh sang trong nha kinh\code\center\Debug\List\station.asm(1092): warning: Register r10 already defined by the .DEF directive
D:\Dropbox\2019\Project\he thong dieu khien anh sang trong nha kinh\code\center\Debug\List\station.asm(1093): warning: Register r11 already defined by the .DEF directive
D:\Dropbox\2019\Project\he thong dieu khien anh sang trong nha kinh\code\center\Debug\List\station.asm(1094): warning: Register r12 already defined by the .DEF directive
D:\Dropbox\2019\Project\he thong dieu khien anh sang trong nha kinh\code\center\Debug\List\station.asm(1095): warning: Register r13 already defined by the .DEF directive
D:\Dropbox\2019\Project\he thong dieu khien anh sang trong nha kinh\code\center\Debug\List\station.asm(1096): warning: Register r6 already defined by the .DEF directive
                 
                 
                 ;CodeVisionAVR C Compiler V3.12 Advanced
                 ;(C) Copyright 1998-2014 Pavel Haiduc, HP InfoTech s.r.l.
                 ;http://www.hpinfotech.com
                 
                 ;Build configuration    : Debug
                 ;Chip type              : ATmega32A
                 ;Program type           : Application
                 ;Clock frequency        : 8.000000 MHz
                 ;Memory model           : Small
                 ;Optimize for           : Size
                 ;(s)printf features     : float, width, precision
                 ;(s)scanf features      : int, width
                 ;External RAM size      : 0
                 ;Data Stack size        : 512 byte(s)
                 ;Heap size              : 0 byte(s)
                 ;Promote 'char' to 'int': Yes
                 ;'char' is unsigned     : Yes
                 ;8 bit enums            : Yes
                 ;Global 'const' stored in FLASH: Yes
                 ;Enhanced function parameter passing: Yes
                 ;Enhanced core instructions: On
                 ;Automatic register allocation for global variables: On
                 ;Smart register allocation: On
                 
                 	#define _MODEL_SMALL_
                 
                 	#pragma AVRPART ADMIN PART_NAME ATmega32A
                 	#pragma AVRPART MEMORY PROG_FLASH 32768
                 	#pragma AVRPART MEMORY EEPROM 1024
                 	#pragma AVRPART MEMORY INT_SRAM SIZE 2048
                 	#pragma AVRPART MEMORY INT_SRAM START_ADDR 0x60
                 
                 	#define CALL_SUPPORTED 1
                 
                 	.LISTMAC
                 	.EQU UDRE=0x5
                 	.EQU RXC=0x7
                 	.EQU USR=0xB
                 	.EQU UDR=0xC
                 	.EQU SPSR=0xE
                 	.EQU SPDR=0xF
                 	.EQU EERE=0x0
                 	.EQU EEWE=0x1
                 	.EQU EEMWE=0x2
                 	.EQU EECR=0x1C
                 	.EQU EEDR=0x1D
                 	.EQU EEARL=0x1E
                 	.EQU EEARH=0x1F
                 	.EQU WDTCR=0x21
                 	.EQU MCUCR=0x35
                 	.EQU SPL=0x3D
                 	.EQU SPH=0x3E
                 	.EQU SREG=0x3F
                 
                 	.DEF R0X0=R0
                 	.DEF R0X1=R1
                 	.DEF R0X2=R2
                 	.DEF R0X3=R3
                 	.DEF R0X4=R4
                 	.DEF R0X5=R5
                 	.DEF R0X6=R6
                 	.DEF R0X7=R7
                 	.DEF R0X8=R8
                 	.DEF R0X9=R9
                 	.DEF R0XA=R10
                 	.DEF R0XB=R11
                 	.DEF R0XC=R12
                 	.DEF R0XD=R13
                 	.DEF R0XE=R14
                 	.DEF R0XF=R15
                 	.DEF R0X10=R16
                 	.DEF R0X11=R17
                 	.DEF R0X12=R18
                 	.DEF R0X13=R19
                 	.DEF R0X14=R20
                 	.DEF R0X15=R21
                 	.DEF R0X16=R22
                 	.DEF R0X17=R23
                 	.DEF R0X18=R24
                 	.DEF R0X19=R25
                 	.DEF R0X1A=R26
                 	.DEF R0X1B=R27
                 	.DEF R0X1C=R28
                 	.DEF R0X1D=R29
                 	.DEF R0X1E=R30
                 	.DEF R0X1F=R31
                 
                 	.EQU __SRAM_START=0x0060
                 	.EQU __SRAM_END=0x085F
                 	.EQU __DSTACK_SIZE=0x0200
                 	.EQU __HEAP_SIZE=0x0000
                 	.EQU __CLEAR_SRAM_SIZE=__SRAM_END-__SRAM_START+1
                 
                 	.MACRO __CPD1N
                 	CPI  R30,LOW(@0)
                 	LDI  R26,HIGH(@0)
                 	CPC  R31,R26
                 	LDI  R26,BYTE3(@0)
                 	CPC  R22,R26
                 	LDI  R26,BYTE4(@0)
                 	CPC  R23,R26
                 	.ENDM
                 
                 	.MACRO __CPD2N
                 	CPI  R26,LOW(@0)
                 	LDI  R30,HIGH(@0)
                 	CPC  R27,R30
                 	LDI  R30,BYTE3(@0)
                 	CPC  R24,R30
                 	LDI  R30,BYTE4(@0)
                 	CPC  R25,R30
                 	.ENDM
                 
                 	.MACRO __CPWRR
                 	CP   R@0,R@2
                 	CPC  R@1,R@3
                 	.ENDM
                 
                 	.MACRO __CPWRN
                 	CPI  R@0,LOW(@2)
                 	LDI  R30,HIGH(@2)
                 	CPC  R@1,R30
                 	.ENDM
                 
                 	.MACRO __ADDB1MN
                 	SUBI R30,LOW(-@0-(@1))
                 	.ENDM
                 
                 	.MACRO __ADDB2MN
                 	SUBI R26,LOW(-@0-(@1))
                 	.ENDM
                 
                 	.MACRO __ADDW1MN
                 	SUBI R30,LOW(-@0-(@1))
                 	SBCI R31,HIGH(-@0-(@1))
                 	.ENDM
                 
                 	.MACRO __ADDW2MN
                 	SUBI R26,LOW(-@0-(@1))
                 	SBCI R27,HIGH(-@0-(@1))
                 	.ENDM
                 
                 	.MACRO __ADDW1FN
                 	SUBI R30,LOW(-2*@0-(@1))
                 	SBCI R31,HIGH(-2*@0-(@1))
                 	.ENDM
                 
                 	.MACRO __ADDD1FN
                 	SUBI R30,LOW(-2*@0-(@1))
                 	SBCI R31,HIGH(-2*@0-(@1))
                 	SBCI R22,BYTE3(-2*@0-(@1))
                 	.ENDM
                 
                 	.MACRO __ADDD1N
                 	SUBI R30,LOW(-@0)
                 	SBCI R31,HIGH(-@0)
                 	SBCI R22,BYTE3(-@0)
                 	SBCI R23,BYTE4(-@0)
                 	.ENDM
                 
                 	.MACRO __ADDD2N
                 	SUBI R26,LOW(-@0)
                 	SBCI R27,HIGH(-@0)
                 	SBCI R24,BYTE3(-@0)
                 	SBCI R25,BYTE4(-@0)
                 	.ENDM
                 
                 	.MACRO __SUBD1N
                 	SUBI R30,LOW(@0)
                 	SBCI R31,HIGH(@0)
                 	SBCI R22,BYTE3(@0)
                 	SBCI R23,BYTE4(@0)
                 	.ENDM
                 
                 	.MACRO __SUBD2N
                 	SUBI R26,LOW(@0)
                 	SBCI R27,HIGH(@0)
                 	SBCI R24,BYTE3(@0)
                 	SBCI R25,BYTE4(@0)
                 	.ENDM
                 
                 	.MACRO __ANDBMNN
                 	LDS  R30,@0+(@1)
                 	ANDI R30,LOW(@2)
                 	STS  @0+(@1),R30
                 	.ENDM
                 
                 	.MACRO __ANDWMNN
                 	LDS  R30,@0+(@1)
                 	ANDI R30,LOW(@2)
                 	STS  @0+(@1),R30
                 	LDS  R30,@0+(@1)+1
                 	ANDI R30,HIGH(@2)
                 	STS  @0+(@1)+1,R30
                 	.ENDM
                 
                 	.MACRO __ANDD1N
                 	ANDI R30,LOW(@0)
                 	ANDI R31,HIGH(@0)
                 	ANDI R22,BYTE3(@0)
                 	ANDI R23,BYTE4(@0)
                 	.ENDM
                 
                 	.MACRO __ANDD2N
                 	ANDI R26,LOW(@0)
                 	ANDI R27,HIGH(@0)
                 	ANDI R24,BYTE3(@0)
                 	ANDI R25,BYTE4(@0)
                 	.ENDM
                 
                 	.MACRO __ORBMNN
                 	LDS  R30,@0+(@1)
                 	ORI  R30,LOW(@2)
                 	STS  @0+(@1),R30
                 	.ENDM
                 
                 	.MACRO __ORWMNN
                 	LDS  R30,@0+(@1)
                 	ORI  R30,LOW(@2)
                 	STS  @0+(@1),R30
                 	LDS  R30,@0+(@1)+1
                 	ORI  R30,HIGH(@2)
                 	STS  @0+(@1)+1,R30
                 	.ENDM
                 
                 	.MACRO __ORD1N
                 	ORI  R30,LOW(@0)
                 	ORI  R31,HIGH(@0)
                 	ORI  R22,BYTE3(@0)
                 	ORI  R23,BYTE4(@0)
                 	.ENDM
                 
                 	.MACRO __ORD2N
                 	ORI  R26,LOW(@0)
                 	ORI  R27,HIGH(@0)
                 	ORI  R24,BYTE3(@0)
                 	ORI  R25,BYTE4(@0)
                 	.ENDM
                 
                 	.MACRO __DELAY_USB
                 	LDI  R24,LOW(@0)
                 __DELAY_USB_LOOP:
                 	DEC  R24
                 	BRNE __DELAY_USB_LOOP
                 	.ENDM
                 
                 	.MACRO __DELAY_USW
                 	LDI  R24,LOW(@0)
                 	LDI  R25,HIGH(@0)
                 __DELAY_USW_LOOP:
                 	SBIW R24,1
                 	BRNE __DELAY_USW_LOOP
                 	.ENDM
                 
                 	.MACRO __GETD1S
                 	LDD  R30,Y+@0
                 	LDD  R31,Y+@0+1
                 	LDD  R22,Y+@0+2
                 	LDD  R23,Y+@0+3
                 	.ENDM
                 
                 	.MACRO __GETD2S
                 	LDD  R26,Y+@0
                 	LDD  R27,Y+@0+1
                 	LDD  R24,Y+@0+2
                 	LDD  R25,Y+@0+3
                 	.ENDM
                 
                 	.MACRO __PUTD1S
                 	STD  Y+@0,R30
                 	STD  Y+@0+1,R31
                 	STD  Y+@0+2,R22
                 	STD  Y+@0+3,R23
                 	.ENDM
                 
                 	.MACRO __PUTD2S
                 	STD  Y+@0,R26
                 	STD  Y+@0+1,R27
                 	STD  Y+@0+2,R24
                 	STD  Y+@0+3,R25
                 	.ENDM
                 
                 	.MACRO __PUTDZ2
                 	STD  Z+@0,R26
                 	STD  Z+@0+1,R27
                 	STD  Z+@0+2,R24
                 	STD  Z+@0+3,R25
                 	.ENDM
                 
                 	.MACRO __CLRD1S
                 	STD  Y+@0,R30
                 	STD  Y+@0+1,R30
                 	STD  Y+@0+2,R30
                 	STD  Y+@0+3,R30
                 	.ENDM
                 
                 	.MACRO __POINTB1MN
                 	LDI  R30,LOW(@0+(@1))
                 	.ENDM
                 
                 	.MACRO __POINTW1MN
                 	LDI  R30,LOW(@0+(@1))
                 	LDI  R31,HIGH(@0+(@1))
                 	.ENDM
                 
                 	.MACRO __POINTD1M
                 	LDI  R30,LOW(@0)
                 	LDI  R31,HIGH(@0)
                 	LDI  R22,BYTE3(@0)
                 	LDI  R23,BYTE4(@0)
                 	.ENDM
                 
                 	.MACRO __POINTW1FN
                 	LDI  R30,LOW(2*@0+(@1))
                 	LDI  R31,HIGH(2*@0+(@1))
                 	.ENDM
                 
                 	.MACRO __POINTD1FN
                 	LDI  R30,LOW(2*@0+(@1))
                 	LDI  R31,HIGH(2*@0+(@1))
                 	LDI  R22,BYTE3(2*@0+(@1))
                 	LDI  R23,BYTE4(2*@0+(@1))
                 	.ENDM
                 
                 	.MACRO __POINTB2MN
                 	LDI  R26,LOW(@0+(@1))
                 	.ENDM
                 
                 	.MACRO __POINTW2MN
                 	LDI  R26,LOW(@0+(@1))
                 	LDI  R27,HIGH(@0+(@1))
                 	.ENDM
                 
                 	.MACRO __POINTW2FN
                 	LDI  R26,LOW(2*@0+(@1))
                 	LDI  R27,HIGH(2*@0+(@1))
                 	.ENDM
                 
                 	.MACRO __POINTD2FN
                 	LDI  R26,LOW(2*@0+(@1))
                 	LDI  R27,HIGH(2*@0+(@1))
                 	LDI  R24,BYTE3(2*@0+(@1))
                 	LDI  R25,BYTE4(2*@0+(@1))
                 	.ENDM
                 
                 	.MACRO __POINTBRM
                 	LDI  R@0,LOW(@1)
                 	.ENDM
                 
                 	.MACRO __POINTWRM
                 	LDI  R@0,LOW(@2)
                 	LDI  R@1,HIGH(@2)
                 	.ENDM
                 
                 	.MACRO __POINTBRMN
                 	LDI  R@0,LOW(@1+(@2))
                 	.ENDM
                 
                 	.MACRO __POINTWRMN
                 	LDI  R@0,LOW(@2+(@3))
                 	LDI  R@1,HIGH(@2+(@3))
                 	.ENDM
                 
                 	.MACRO __POINTWRFN
                 	LDI  R@0,LOW(@2*2+(@3))
                 	LDI  R@1,HIGH(@2*2+(@3))
                 	.ENDM
                 
                 	.MACRO __GETD1N
                 	LDI  R30,LOW(@0)
                 	LDI  R31,HIGH(@0)
                 	LDI  R22,BYTE3(@0)
                 	LDI  R23,BYTE4(@0)
                 	.ENDM
                 
                 	.MACRO __GETD2N
                 	LDI  R26,LOW(@0)
                 	LDI  R27,HIGH(@0)
                 	LDI  R24,BYTE3(@0)
                 	LDI  R25,BYTE4(@0)
                 	.ENDM
                 
                 	.MACRO __GETB1MN
                 	LDS  R30,@0+(@1)
                 	.ENDM
                 
                 	.MACRO __GETB1HMN
                 	LDS  R31,@0+(@1)
                 	.ENDM
                 
                 	.MACRO __GETW1MN
                 	LDS  R30,@0+(@1)
                 	LDS  R31,@0+(@1)+1
                 	.ENDM
                 
                 	.MACRO __GETD1MN
                 	LDS  R30,@0+(@1)
                 	LDS  R31,@0+(@1)+1
                 	LDS  R22,@0+(@1)+2
                 	LDS  R23,@0+(@1)+3
                 	.ENDM
                 
                 	.MACRO __GETBRMN
                 	LDS  R@0,@1+(@2)
                 	.ENDM
                 
                 	.MACRO __GETWRMN
                 	LDS  R@0,@2+(@3)
                 	LDS  R@1,@2+(@3)+1
                 	.ENDM
                 
                 	.MACRO __GETWRZ
                 	LDD  R@0,Z+@2
                 	LDD  R@1,Z+@2+1
                 	.ENDM
                 
                 	.MACRO __GETD2Z
                 	LDD  R26,Z+@0
                 	LDD  R27,Z+@0+1
                 	LDD  R24,Z+@0+2
                 	LDD  R25,Z+@0+3
                 	.ENDM
                 
                 	.MACRO __GETB2MN
                 	LDS  R26,@0+(@1)
                 	.ENDM
                 
                 	.MACRO __GETW2MN
                 	LDS  R26,@0+(@1)
                 	LDS  R27,@0+(@1)+1
                 	.ENDM
                 
                 	.MACRO __GETD2MN
                 	LDS  R26,@0+(@1)
                 	LDS  R27,@0+(@1)+1
                 	LDS  R24,@0+(@1)+2
                 	LDS  R25,@0+(@1)+3
                 	.ENDM
                 
                 	.MACRO __PUTB1MN
                 	STS  @0+(@1),R30
                 	.ENDM
                 
                 	.MACRO __PUTW1MN
                 	STS  @0+(@1),R30
                 	STS  @0+(@1)+1,R31
                 	.ENDM
                 
                 	.MACRO __PUTD1MN
                 	STS  @0+(@1),R30
                 	STS  @0+(@1)+1,R31
                 	STS  @0+(@1)+2,R22
                 	STS  @0+(@1)+3,R23
                 	.ENDM
                 
                 	.MACRO __PUTB1EN
                 	LDI  R26,LOW(@0+(@1))
                 	LDI  R27,HIGH(@0+(@1))
                 	CALL __EEPROMWRB
                 	.ENDM
                 
                 	.MACRO __PUTW1EN
                 	LDI  R26,LOW(@0+(@1))
                 	LDI  R27,HIGH(@0+(@1))
                 	CALL __EEPROMWRW
                 	.ENDM
                 
                 	.MACRO __PUTD1EN
                 	LDI  R26,LOW(@0+(@1))
                 	LDI  R27,HIGH(@0+(@1))
                 	CALL __EEPROMWRD
                 	.ENDM
                 
                 	.MACRO __PUTBR0MN
                 	STS  @0+(@1),R0
                 	.ENDM
                 
                 	.MACRO __PUTBMRN
                 	STS  @0+(@1),R@2
                 	.ENDM
                 
                 	.MACRO __PUTWMRN
                 	STS  @0+(@1),R@2
                 	STS  @0+(@1)+1,R@3
                 	.ENDM
                 
                 	.MACRO __PUTBZR
                 	STD  Z+@1,R@0
                 	.ENDM
                 
                 	.MACRO __PUTWZR
                 	STD  Z+@2,R@0
                 	STD  Z+@2+1,R@1
                 	.ENDM
                 
                 	.MACRO __GETW1R
                 	MOV  R30,R@0
                 	MOV  R31,R@1
                 	.ENDM
                 
                 	.MACRO __GETW2R
                 	MOV  R26,R@0
                 	MOV  R27,R@1
                 	.ENDM
                 
                 	.MACRO __GETWRN
                 	LDI  R@0,LOW(@2)
                 	LDI  R@1,HIGH(@2)
                 	.ENDM
                 
                 	.MACRO __PUTW1R
                 	MOV  R@0,R30
                 	MOV  R@1,R31
                 	.ENDM
                 
                 	.MACRO __PUTW2R
                 	MOV  R@0,R26
                 	MOV  R@1,R27
                 	.ENDM
                 
                 	.MACRO __ADDWRN
                 	SUBI R@0,LOW(-@2)
                 	SBCI R@1,HIGH(-@2)
                 	.ENDM
                 
                 	.MACRO __ADDWRR
                 	ADD  R@0,R@2
                 	ADC  R@1,R@3
                 	.ENDM
                 
                 	.MACRO __SUBWRN
                 	SUBI R@0,LOW(@2)
                 	SBCI R@1,HIGH(@2)
                 	.ENDM
                 
                 	.MACRO __SUBWRR
                 	SUB  R@0,R@2
                 	SBC  R@1,R@3
                 	.ENDM
                 
                 	.MACRO __ANDWRN
                 	ANDI R@0,LOW(@2)
                 	ANDI R@1,HIGH(@2)
                 	.ENDM
                 
                 	.MACRO __ANDWRR
                 	AND  R@0,R@2
                 	AND  R@1,R@3
                 	.ENDM
                 
                 	.MACRO __ORWRN
                 	ORI  R@0,LOW(@2)
                 	ORI  R@1,HIGH(@2)
                 	.ENDM
                 
                 	.MACRO __ORWRR
                 	OR   R@0,R@2
                 	OR   R@1,R@3
                 	.ENDM
                 
                 	.MACRO __EORWRR
                 	EOR  R@0,R@2
                 	EOR  R@1,R@3
                 	.ENDM
                 
                 	.MACRO __GETWRS
                 	LDD  R@0,Y+@2
                 	LDD  R@1,Y+@2+1
                 	.ENDM
                 
                 	.MACRO __PUTBSR
                 	STD  Y+@1,R@0
                 	.ENDM
                 
                 	.MACRO __PUTWSR
                 	STD  Y+@2,R@0
                 	STD  Y+@2+1,R@1
                 	.ENDM
                 
                 	.MACRO __MOVEWRR
                 	MOV  R@0,R@2
                 	MOV  R@1,R@3
                 	.ENDM
                 
                 	.MACRO __INWR
                 	IN   R@0,@2
                 	IN   R@1,@2+1
                 	.ENDM
                 
                 	.MACRO __OUTWR
                 	OUT  @2+1,R@1
                 	OUT  @2,R@0
                 	.ENDM
                 
                 	.MACRO __CALL1MN
                 	LDS  R30,@0+(@1)
                 	LDS  R31,@0+(@1)+1
                 	ICALL
                 	.ENDM
                 
                 	.MACRO __CALL1FN
                 	LDI  R30,LOW(2*@0+(@1))
                 	LDI  R31,HIGH(2*@0+(@1))
                 	CALL __GETW1PF
                 	ICALL
                 	.ENDM
                 
                 	.MACRO __CALL2EN
                 	PUSH R26
                 	PUSH R27
                 	LDI  R26,LOW(@0+(@1))
                 	LDI  R27,HIGH(@0+(@1))
                 	CALL __EEPROMRDW
                 	POP  R27
                 	POP  R26
                 	ICALL
                 	.ENDM
                 
                 	.MACRO __CALL2EX
                 	SUBI R26,LOW(-@0)
                 	SBCI R27,HIGH(-@0)
                 	CALL __EEPROMRDD
                 	ICALL
                 	.ENDM
                 
                 	.MACRO __GETW1STACK
                 	IN   R30,SPL
                 	IN   R31,SPH
                 	ADIW R30,@0+1
                 	LD   R0,Z+
                 	LD   R31,Z
                 	MOV  R30,R0
                 	.ENDM
                 
                 	.MACRO __GETD1STACK
                 	IN   R30,SPL
                 	IN   R31,SPH
                 	ADIW R30,@0+1
                 	LD   R0,Z+
                 	LD   R1,Z+
                 	LD   R22,Z
                 	MOVW R30,R0
                 	.ENDM
                 
                 	.MACRO __NBST
                 	BST  R@0,@1
                 	IN   R30,SREG
                 	LDI  R31,0x40
                 	EOR  R30,R31
                 	OUT  SREG,R30
                 	.ENDM
                 
                 
                 	.MACRO __PUTB1SN
                 	LDD  R26,Y+@0
                 	LDD  R27,Y+@0+1
                 	SUBI R26,LOW(-@1)
                 	SBCI R27,HIGH(-@1)
                 	ST   X,R30
                 	.ENDM
                 
                 	.MACRO __PUTW1SN
                 	LDD  R26,Y+@0
                 	LDD  R27,Y+@0+1
                 	SUBI R26,LOW(-@1)
                 	SBCI R27,HIGH(-@1)
                 	ST   X+,R30
                 	ST   X,R31
                 	.ENDM
                 
                 	.MACRO __PUTD1SN
                 	LDD  R26,Y+@0
                 	LDD  R27,Y+@0+1
                 	SUBI R26,LOW(-@1)
                 	SBCI R27,HIGH(-@1)
                 	CALL __PUTDP1
                 	.ENDM
                 
                 	.MACRO __PUTB1SNS
                 	LDD  R26,Y+@0
                 	LDD  R27,Y+@0+1
                 	ADIW R26,@1
                 	ST   X,R30
                 	.ENDM
                 
                 	.MACRO __PUTW1SNS
                 	LDD  R26,Y+@0
                 	LDD  R27,Y+@0+1
                 	ADIW R26,@1
                 	ST   X+,R30
                 	ST   X,R31
                 	.ENDM
                 
                 	.MACRO __PUTD1SNS
                 	LDD  R26,Y+@0
                 	LDD  R27,Y+@0+1
                 	ADIW R26,@1
                 	CALL __PUTDP1
                 	.ENDM
                 
                 	.MACRO __PUTB1PMN
                 	LDS  R26,@0
                 	LDS  R27,@0+1
                 	SUBI R26,LOW(-@1)
                 	SBCI R27,HIGH(-@1)
                 	ST   X,R30
                 	.ENDM
                 
                 	.MACRO __PUTW1PMN
                 	LDS  R26,@0
                 	LDS  R27,@0+1
                 	SUBI R26,LOW(-@1)
                 	SBCI R27,HIGH(-@1)
                 	ST   X+,R30
                 	ST   X,R31
                 	.ENDM
                 
                 	.MACRO __PUTD1PMN
                 	LDS  R26,@0
                 	LDS  R27,@0+1
                 	SUBI R26,LOW(-@1)
                 	SBCI R27,HIGH(-@1)
                 	CALL __PUTDP1
                 	.ENDM
                 
                 	.MACRO __PUTB1PMNS
                 	LDS  R26,@0
                 	LDS  R27,@0+1
                 	ADIW R26,@1
                 	ST   X,R30
                 	.ENDM
                 
                 	.MACRO __PUTW1PMNS
                 	LDS  R26,@0
                 	LDS  R27,@0+1
                 	ADIW R26,@1
                 	ST   X+,R30
                 	ST   X,R31
                 	.ENDM
                 
                 	.MACRO __PUTD1PMNS
                 	LDS  R26,@0
                 	LDS  R27,@0+1
                 	ADIW R26,@1
                 	CALL __PUTDP1
                 	.ENDM
                 
                 	.MACRO __PUTB1RN
                 	MOVW R26,R@0
                 	SUBI R26,LOW(-@1)
                 	SBCI R27,HIGH(-@1)
                 	ST   X,R30
                 	.ENDM
                 
                 	.MACRO __PUTW1RN
                 	MOVW R26,R@0
                 	SUBI R26,LOW(-@1)
                 	SBCI R27,HIGH(-@1)
                 	ST   X+,R30
                 	ST   X,R31
                 	.ENDM
                 
                 	.MACRO __PUTD1RN
                 	MOVW R26,R@0
                 	SUBI R26,LOW(-@1)
                 	SBCI R27,HIGH(-@1)
                 	CALL __PUTDP1
                 	.ENDM
                 
                 	.MACRO __PUTB1RNS
                 	MOVW R26,R@0
                 	ADIW R26,@1
                 	ST   X,R30
                 	.ENDM
                 
                 	.MACRO __PUTW1RNS
                 	MOVW R26,R@0
                 	ADIW R26,@1
                 	ST   X+,R30
                 	ST   X,R31
                 	.ENDM
                 
                 	.MACRO __PUTD1RNS
                 	MOVW R26,R@0
                 	ADIW R26,@1
                 	CALL __PUTDP1
                 	.ENDM
                 
                 	.MACRO __PUTB1RON
                 	MOV  R26,R@0
                 	MOV  R27,R@1
                 	SUBI R26,LOW(-@2)
                 	SBCI R27,HIGH(-@2)
                 	ST   X,R30
                 	.ENDM
                 
                 	.MACRO __PUTW1RON
                 	MOV  R26,R@0
                 	MOV  R27,R@1
                 	SUBI R26,LOW(-@2)
                 	SBCI R27,HIGH(-@2)
                 	ST   X+,R30
                 	ST   X,R31
                 	.ENDM
                 
                 	.MACRO __PUTD1RON
                 	MOV  R26,R@0
                 	MOV  R27,R@1
                 	SUBI R26,LOW(-@2)
                 	SBCI R27,HIGH(-@2)
                 	CALL __PUTDP1
                 	.ENDM
                 
                 	.MACRO __PUTB1RONS
                 	MOV  R26,R@0
                 	MOV  R27,R@1
                 	ADIW R26,@2
                 	ST   X,R30
                 	.ENDM
                 
                 	.MACRO __PUTW1RONS
                 	MOV  R26,R@0
                 	MOV  R27,R@1
                 	ADIW R26,@2
                 	ST   X+,R30
                 	ST   X,R31
                 	.ENDM
                 
                 	.MACRO __PUTD1RONS
                 	MOV  R26,R@0
                 	MOV  R27,R@1
                 	ADIW R26,@2
                 	CALL __PUTDP1
                 	.ENDM
                 
                 
                 	.MACRO __GETB1SX
                 	MOVW R30,R28
                 	SUBI R30,LOW(-@0)
                 	SBCI R31,HIGH(-@0)
                 	LD   R30,Z
                 	.ENDM
                 
                 	.MACRO __GETB1HSX
                 	MOVW R30,R28
                 	SUBI R30,LOW(-@0)
                 	SBCI R31,HIGH(-@0)
                 	LD   R31,Z
                 	.ENDM
                 
                 	.MACRO __GETW1SX
                 	MOVW R30,R28
                 	SUBI R30,LOW(-@0)
                 	SBCI R31,HIGH(-@0)
                 	LD   R0,Z+
                 	LD   R31,Z
                 	MOV  R30,R0
                 	.ENDM
                 
                 	.MACRO __GETD1SX
                 	MOVW R30,R28
                 	SUBI R30,LOW(-@0)
                 	SBCI R31,HIGH(-@0)
                 	LD   R0,Z+
                 	LD   R1,Z+
                 	LD   R22,Z+
                 	LD   R23,Z
                 	MOVW R30,R0
                 	.ENDM
                 
                 	.MACRO __GETB2SX
                 	MOVW R26,R28
                 	SUBI R26,LOW(-@0)
                 	SBCI R27,HIGH(-@0)
                 	LD   R26,X
                 	.ENDM
                 
                 	.MACRO __GETW2SX
                 	MOVW R26,R28
                 	SUBI R26,LOW(-@0)
                 	SBCI R27,HIGH(-@0)
                 	LD   R0,X+
                 	LD   R27,X
                 	MOV  R26,R0
                 	.ENDM
                 
                 	.MACRO __GETD2SX
                 	MOVW R26,R28
                 	SUBI R26,LOW(-@0)
                 	SBCI R27,HIGH(-@0)
                 	LD   R0,X+
                 	LD   R1,X+
                 	LD   R24,X+
                 	LD   R25,X
                 	MOVW R26,R0
                 	.ENDM
                 
                 	.MACRO __GETBRSX
                 	MOVW R30,R28
                 	SUBI R30,LOW(-@1)
                 	SBCI R31,HIGH(-@1)
                 	LD   R@0,Z
                 	.ENDM
                 
                 	.MACRO __GETWRSX
                 	MOVW R30,R28
                 	SUBI R30,LOW(-@2)
                 	SBCI R31,HIGH(-@2)
                 	LD   R@0,Z+
                 	LD   R@1,Z
                 	.ENDM
                 
                 	.MACRO __GETBRSX2
                 	MOVW R26,R28
                 	SUBI R26,LOW(-@1)
                 	SBCI R27,HIGH(-@1)
                 	LD   R@0,X
                 	.ENDM
                 
                 	.MACRO __GETWRSX2
                 	MOVW R26,R28
                 	SUBI R26,LOW(-@2)
                 	SBCI R27,HIGH(-@2)
                 	LD   R@0,X+
                 	LD   R@1,X
                 	.ENDM
                 
                 	.MACRO __LSLW8SX
                 	MOVW R30,R28
                 	SUBI R30,LOW(-@0)
                 	SBCI R31,HIGH(-@0)
                 	LD   R31,Z
                 	CLR  R30
                 	.ENDM
                 
                 	.MACRO __PUTB1SX
                 	MOVW R26,R28
                 	SUBI R26,LOW(-@0)
                 	SBCI R27,HIGH(-@0)
                 	ST   X,R30
                 	.ENDM
                 
                 	.MACRO __PUTW1SX
                 	MOVW R26,R28
                 	SUBI R26,LOW(-@0)
                 	SBCI R27,HIGH(-@0)
                 	ST   X+,R30
                 	ST   X,R31
                 	.ENDM
                 
                 	.MACRO __PUTD1SX
                 	MOVW R26,R28
                 	SUBI R26,LOW(-@0)
                 	SBCI R27,HIGH(-@0)
                 	ST   X+,R30
                 	ST   X+,R31
                 	ST   X+,R22
                 	ST   X,R23
                 	.ENDM
                 
                 	.MACRO __CLRW1SX
                 	MOVW R26,R28
                 	SUBI R26,LOW(-@0)
                 	SBCI R27,HIGH(-@0)
                 	ST   X+,R30
                 	ST   X,R30
                 	.ENDM
                 
                 	.MACRO __CLRD1SX
                 	MOVW R26,R28
                 	SUBI R26,LOW(-@0)
                 	SBCI R27,HIGH(-@0)
                 	ST   X+,R30
                 	ST   X+,R30
                 	ST   X+,R30
                 	ST   X,R30
                 	.ENDM
                 
                 	.MACRO __PUTB2SX
                 	MOVW R30,R28
                 	SUBI R30,LOW(-@0)
                 	SBCI R31,HIGH(-@0)
                 	ST   Z,R26
                 	.ENDM
                 
                 	.MACRO __PUTW2SX
                 	MOVW R30,R28
                 	SUBI R30,LOW(-@0)
                 	SBCI R31,HIGH(-@0)
                 	ST   Z+,R26
                 	ST   Z,R27
                 	.ENDM
                 
                 	.MACRO __PUTD2SX
                 	MOVW R30,R28
                 	SUBI R30,LOW(-@0)
                 	SBCI R31,HIGH(-@0)
                 	ST   Z+,R26
                 	ST   Z+,R27
                 	ST   Z+,R24
                 	ST   Z,R25
                 	.ENDM
                 
                 	.MACRO __PUTBSRX
                 	MOVW R30,R28
                 	SUBI R30,LOW(-@1)
                 	SBCI R31,HIGH(-@1)
                 	ST   Z,R@0
                 	.ENDM
                 
                 	.MACRO __PUTWSRX
                 	MOVW R30,R28
                 	SUBI R30,LOW(-@2)
                 	SBCI R31,HIGH(-@2)
                 	ST   Z+,R@0
                 	ST   Z,R@1
                 	.ENDM
                 
                 	.MACRO __PUTB1SNX
                 	MOVW R26,R28
                 	SUBI R26,LOW(-@0)
                 	SBCI R27,HIGH(-@0)
                 	LD   R0,X+
                 	LD   R27,X
                 	MOV  R26,R0
                 	SUBI R26,LOW(-@1)
                 	SBCI R27,HIGH(-@1)
                 	ST   X,R30
                 	.ENDM
                 
                 	.MACRO __PUTW1SNX
                 	MOVW R26,R28
                 	SUBI R26,LOW(-@0)
                 	SBCI R27,HIGH(-@0)
                 	LD   R0,X+
                 	LD   R27,X
                 	MOV  R26,R0
                 	SUBI R26,LOW(-@1)
                 	SBCI R27,HIGH(-@1)
                 	ST   X+,R30
                 	ST   X,R31
                 	.ENDM
                 
                 	.MACRO __PUTD1SNX
                 	MOVW R26,R28
                 	SUBI R26,LOW(-@0)
                 	SBCI R27,HIGH(-@0)
                 	LD   R0,X+
                 	LD   R27,X
                 	MOV  R26,R0
                 	SUBI R26,LOW(-@1)
                 	SBCI R27,HIGH(-@1)
                 	ST   X+,R30
                 	ST   X+,R31
                 	ST   X+,R22
                 	ST   X,R23
                 	.ENDM
                 
                 	.MACRO __MULBRR
                 	MULS R@0,R@1
                 	MOVW R30,R0
                 	.ENDM
                 
                 	.MACRO __MULBRRU
                 	MUL  R@0,R@1
                 	MOVW R30,R0
                 	.ENDM
                 
                 	.MACRO __MULBRR0
                 	MULS R@0,R@1
                 	.ENDM
                 
                 	.MACRO __MULBRRU0
                 	MUL  R@0,R@1
                 	.ENDM
                 
                 	.MACRO __MULBNWRU
                 	LDI  R26,@2
                 	MUL  R26,R@0
                 	MOVW R30,R0
                 	MUL  R26,R@1
                 	ADD  R31,R0
                 	.ENDM
                 
                 ;NAME DEFINITIONS FOR GLOBAL VARIABLES ALLOCATED TO REGISTERS
                 	.DEF _p=R5
                 	.DEF _p1=R4
                 	.DEF _relay=R7
                 	.DEF _dem=R8
                 	.DEF _dem_msb=R9
                 	.DEF _dem_1=R10
                 	.DEF _dem_1_msb=R11
                 	.DEF _dem_2=R12
                 	.DEF _dem_2_msb=R13
                 	.DEF _Send_Add=R6
                 
                 	.CSEG
                 	.ORG 0x00
                 
                 ;START OF CODE MARKER
                 __START_OF_CODE:
                 
                 ;INTERRUPT VECTORS
000000 940c 003f 	JMP  __RESET
000002 940c 0000 	JMP  0x00
000004 940c 0000 	JMP  0x00
000006 940c 0000 	JMP  0x00
000008 940c 0000 	JMP  0x00
00000a 940c 0000 	JMP  0x00
00000c 940c 0000 	JMP  0x00
00000e 940c 0000 	JMP  0x00
000010 940c 0000 	JMP  0x00
000012 940c 0000 	JMP  0x00
000014 940c 0000 	JMP  0x00
000016 940c 006b 	JMP  _timer0_ovf_isr
000018 940c 0000 	JMP  0x00
00001a 940c 0000 	JMP  0x00
00001c 940c 0000 	JMP  0x00
00001e 940c 0000 	JMP  0x00
000020 940c 0000 	JMP  0x00
000022 940c 0000 	JMP  0x00
000024 940c 0000 	JMP  0x00
000026 940c 0000 	JMP  0x00
000028 940c 0000 	JMP  0x00
                 
                 ;GLOBAL REGISTER VARIABLES INITIALIZATION
                 __REG_VARS:
00002a 0000
00002b 0000      	.DB  0x0,0x0,0x0,0x0
00002c 0000
00002d 0000      	.DB  0x0,0x0,0x0,0x0
00002e 0000      	.DB  0x0,0x0
                 
                 _0x2000000:
00002f 4e2d
000030 4e41
D:\Dropbox\2019\Project\he thong dieu khien anh sang trong nha kinh\code\center\Debug\List\station.asm(1134): warning: .cseg .db misalignment - padding zero byte
000031 0000      	.DB  0x2D,0x4E,0x41,0x4E,0x0
                 _0x2080060:
D:\Dropbox\2019\Project\he thong dieu khien anh sang trong nha kinh\code\center\Debug\List\station.asm(1136): warning: .cseg .db misalignment - padding zero byte
000032 0001      	.DB  0x1
                 _0x2080000:
000033 4e2d
000034 4e41
000035 4900
000036 464e      	.DB  0x2D,0x4E,0x41,0x4E,0x0,0x49,0x4E,0x46
D:\Dropbox\2019\Project\he thong dieu khien anh sang trong nha kinh\code\center\Debug\List\station.asm(1139): warning: .cseg .db misalignment - padding zero byte
000037 0000      	.DB  0x0
                 
                 __GLOBAL_INI_TBL:
000038 000a      	.DW  0x0A
000039 0004      	.DW  0x04
00003a 0054      	.DW  __REG_VARS*2
                 
00003b 0001      	.DW  0x01
00003c 027c      	.DW  __seed_G104
00003d 0064      	.DW  _0x2080060*2
                 
                 _0xFFFFFFFF:
00003e 0000      	.DW  0
                 
                 #define __GLOBAL_INI_TBL_PRESENT 1
                 
                 __RESET:
00003f 94f8      	CLI
000040 27ee      	CLR  R30
000041 bbec      	OUT  EECR,R30
                 
                 ;INTERRUPT VECTORS ARE PLACED
                 ;AT THE START OF FLASH
000042 e0f1      	LDI  R31,1
000043 bff5      	OUT  MCUCR,R31
000044 bfe5      	OUT  MCUCR,R30
                 
                 ;CLEAR R2-R14
000045 e08d      	LDI  R24,(14-2)+1
000046 e0a2      	LDI  R26,2
000047 27bb      	CLR  R27
                 __CLEAR_REG:
000048 93ed      	ST   X+,R30
000049 958a      	DEC  R24
00004a f7e9      	BRNE __CLEAR_REG
                 
                 ;CLEAR SRAM
00004b e080      	LDI  R24,LOW(__CLEAR_SRAM_SIZE)
00004c e098      	LDI  R25,HIGH(__CLEAR_SRAM_SIZE)
00004d e6a0      	LDI  R26,__SRAM_START
                 __CLEAR_SRAM:
00004e 93ed      	ST   X+,R30
00004f 9701      	SBIW R24,1
000050 f7e9      	BRNE __CLEAR_SRAM
                 
                 ;GLOBAL VARIABLES INITIALIZATION
000051 e7e0      	LDI  R30,LOW(__GLOBAL_INI_TBL*2)
000052 e0f0      	LDI  R31,HIGH(__GLOBAL_INI_TBL*2)
                 __GLOBAL_INI_NEXT:
000053 9185      	LPM  R24,Z+
000054 9195      	LPM  R25,Z+
000055 9700      	SBIW R24,0
000056 f061      	BREQ __GLOBAL_INI_END
000057 91a5      	LPM  R26,Z+
000058 91b5      	LPM  R27,Z+
000059 9005      	LPM  R0,Z+
00005a 9015      	LPM  R1,Z+
00005b 01bf      	MOVW R22,R30
00005c 01f0      	MOVW R30,R0
                 __GLOBAL_INI_LOOP:
00005d 9005      	LPM  R0,Z+
00005e 920d      	ST   X+,R0
00005f 9701      	SBIW R24,1
000060 f7e1      	BRNE __GLOBAL_INI_LOOP
000061 01fb      	MOVW R30,R22
000062 cff0      	RJMP __GLOBAL_INI_NEXT
                 __GLOBAL_INI_END:
                 
                 ;HARDWARE STACK POINTER INITIALIZATION
000063 e5ef      	LDI  R30,LOW(__SRAM_END-__HEAP_SIZE)
000064 bfed      	OUT  SPL,R30
000065 e0e8      	LDI  R30,HIGH(__SRAM_END-__HEAP_SIZE)
000066 bfee      	OUT  SPH,R30
                 
                 ;DATA STACK POINTER INITIALIZATION
000067 e6c0      	LDI  R28,LOW(__SRAM_START+__DSTACK_SIZE)
000068 e0d2      	LDI  R29,HIGH(__SRAM_START+__DSTACK_SIZE)
                 
000069 940c 01ee 	JMP  _main
                 
                 	.ESEG
                 	.ORG 0
                 
                 	.DSEG
                 	.ORG 0x260
                 
                 	.CSEG
                 ;#include <mega32a.h>
                 	#ifndef __SLEEP_DEFINED__
                 	#define __SLEEP_DEFINED__
                 	.EQU __se_bit=0x80
                 	.EQU __sm_mask=0x70
                 	.EQU __sm_powerdown=0x20
                 	.EQU __sm_powersave=0x30
                 	.EQU __sm_standby=0x60
                 	.EQU __sm_ext_standby=0x70
                 	.EQU __sm_adc_noise_red=0x10
                 	.SET power_ctrl_reg=mcucr
                 	#endif
                 ;#include <stdio.h>
                 ;#include <delay.h>
                 ;#include <define.c>
                 ;
                 ;#define servo_1    PORTB.1
                 ;#define servo_2    PORTB.2
                 ;#define servo_3    PORTB.4
                 ;#define servo_4    PORTD.0
                 ;#define Role    PORTD.1
                 ;#define Led_1    PORTD.3
                 ;#define Led_2    PORTD.6
                 ;
                 ;#define tiemcan_1    PORTA.1
                 ;#define tiemcan_2    PORTA.0
                 ;#define tiemcan_3    PORTB.0
                 ;
                 ;#define CE PORTC.2
                 ;#define CSN PORTC.6
                 ;#define SCK PORTC.1
                 ;#define MOSI PORTC.7
                 ;#define MISO PINC.0
                 ;#define IRQ PINA.7
                 ;
                 ;unsigned char p=0, p1=0, relay=0;
                 ;
                 ;unsigned int dem=0, dem_1=0, dem_2=0;
                 ;unsigned int light, soil, temp;
                 ;
                 ;
                 ;interrupt [TIM0_OVF] void timer0_ovf_isr(void)
                 ; 0000 0004 {
                 
                 	.CSEG
                 _timer0_ovf_isr:
                 ; .FSTART _timer0_ovf_isr
00006b 93ea      	ST   -Y,R30
00006c 93fa      	ST   -Y,R31
00006d b7ef      	IN   R30,SREG
00006e 93ea      	ST   -Y,R30
                 ;TCNT0=0xB2; //10ms
00006f ebe2      	LDI  R30,LOW(178)
000070 bfe2      	OUT  0x32,R30
                 ;if(p==1)
000071 e0e1      	LDI  R30,LOW(1)
000072 15e5      	CP   R30,R5
000073 f421      	BRNE _0x3
                 ;        {
                 ;            Led_1=1;
000074 9a93      	SBI  0x12,3
                 ;            dem++;
000075 01f4      	MOVW R30,R8
000076 9631      	ADIW R30,1
000077 014f      	MOVW R8,R30
                 ;        }
                 ;if(dem==500)
                 _0x3:
000078 efe4      	LDI  R30,LOW(500)
000079 e0f1      	LDI  R31,HIGH(500)
00007a 15e8      	CP   R30,R8
00007b 05f9      	CPC  R31,R9
00007c f421      	BRNE _0x6
                 ;        {
                 ;            Led_1=0;
00007d 9893      	CBI  0x12,3
                 ;            dem=0;
00007e 2488      	CLR  R8
00007f 2499      	CLR  R9
                 ;            p=0;
000080 2455      	CLR  R5
                 ;        }
                 ;if (p1==1)
                 _0x6:
000081 e0e1      	LDI  R30,LOW(1)
000082 15e4      	CP   R30,R4
000083 f431      	BRNE _0x9
                 ;    {
                 ;        p=1;
000084 2e5e      	MOV  R5,R30
                 ;        Led_1=1;
000085 9a93      	SBI  0x12,3
                 ;        Led_2=1;
000086 9a96      	SBI  0x12,6
                 ;        dem_1++;
000087 01f5      	MOVW R30,R10
000088 9631      	ADIW R30,1
000089 015f      	MOVW R10,R30
                 ;    }
                 ;if (dem_1==500)
                 _0x9:
00008a efe4      	LDI  R30,LOW(500)
00008b e0f1      	LDI  R31,HIGH(500)
00008c 15ea      	CP   R30,R10
00008d 05fb      	CPC  R31,R11
00008e f431      	BRNE _0xE
                 ;    {
                 ;        Led_2=0;
00008f 9896      	CBI  0x12,6
                 ;        Led_1=0;
000090 9893      	CBI  0x12,3
                 ;        dem_1=0;
000091 24aa      	CLR  R10
000092 24bb      	CLR  R11
                 ;        p1=0;
000093 2444      	CLR  R4
                 ;        p=0;
000094 2455      	CLR  R5
                 ;    }
                 ;if (relay==1)
                 _0xE:
000095 e0e1      	LDI  R30,LOW(1)
000096 15e7      	CP   R30,R7
000097 f421      	BRNE _0x13
                 ;    {
                 ;        Role=1;
000098 9a91      	SBI  0x12,1
                 ;        dem_2++;
000099 01f6      	MOVW R30,R12
00009a 9631      	ADIW R30,1
00009b 016f      	MOVW R12,R30
                 ;    }
                 ;if (dem_2==1000)
                 _0x13:
00009c eee8      	LDI  R30,LOW(1000)
00009d e0f3      	LDI  R31,HIGH(1000)
00009e 15ec      	CP   R30,R12
00009f 05fd      	CPC  R31,R13
0000a0 f421      	BRNE _0x16
                 ;    {
                 ;        Role=0;
0000a1 9891      	CBI  0x12,1
                 ;        dem_2=0;
0000a2 24cc      	CLR  R12
0000a3 24dd      	CLR  R13
                 ;        relay=0;
0000a4 2477      	CLR  R7
                 ;    }
                 ;}
                 _0x16:
0000a5 91e9      	LD   R30,Y+
0000a6 bfef      	OUT  SREG,R30
0000a7 91f9      	LD   R31,Y+
0000a8 91e9      	LD   R30,Y+
0000a9 9518      	RETI
                 ; .FEND
                 ;
                 ;#define ADC_VREF_TYPE ((0<<REFS1) | (0<<REFS0) | (0<<ADLAR))
                 ;
                 ;// Read the AD conversion result
                 ;unsigned int read_adc(unsigned char adc_input)
                 ;{
                 _read_adc:
                 ; .FSTART _read_adc
                 ;ADMUX=adc_input | ADC_VREF_TYPE;
0000aa 93aa      	ST   -Y,R26
                 ;	adc_input -> Y+0
0000ab 81e8      	LD   R30,Y
0000ac b9e7      	OUT  0x7,R30
                 ;// Delay needed for the stabilization of the ADC input voltage
                 ;delay_us(10);
                +
0000ad e18b     +LDI R24 , LOW ( 27 )
                +__DELAY_USB_LOOP :
0000ae 958a     +DEC R24
0000af f7f1     +BRNE __DELAY_USB_LOOP
                 	__DELAY_USB 27
                 ;// Start the AD conversion
                 ;ADCSRA|=(1<<ADSC);
0000b0 9a36      	SBI  0x6,6
                 ;// Wait for the AD conversion to complete
                 ;while ((ADCSRA & (1<<ADIF))==0);
                 _0x19:
0000b1 9b34      	SBIS 0x6,4
0000b2 cffe      	RJMP _0x19
                 ;ADCSRA|=(1<<ADIF);
0000b3 9a34      	SBI  0x6,4
                 ;return ADCW;
0000b4 b1e4      	IN   R30,0x4
0000b5 b1f5      	IN   R31,0x4+1
0000b6 c068      	RJMP _0x20A0003
                 ;}
                 ; .FEND
                 ;void init_system()
                 ;{
                 _init_system:
                 ; .FSTART _init_system
                 ;DDRA=(0<<DDA7) | (0<<DDA6) | (0<<DDA5) | (1<<DDA4) | (1<<DDA3) | (1<<DDA2) | (0<<DDA1) | (0<<DDA0);
0000b7 e1ec      	LDI  R30,LOW(28)
0000b8 bbea      	OUT  0x1A,R30
                 ;PORTA=(1<<PORTA7) | (0<<PORTA6) | (0<<PORTA5) | (0<<PORTA4) | (0<<PORTA3) | (0<<PORTA2) | (0<<PORTA1) | (0<<PORTA0);
0000b9 e8e0      	LDI  R30,LOW(128)
0000ba bbeb      	OUT  0x1B,R30
                 ;
                 ;DDRB=(0<<DDB7) | (0<<DDB6) | (0<<DDB5) | (0<<DDB4) | (0<<DDB3) | (0<<DDB2) | (0<<DDB1) | (0<<DDB0);
0000bb e0e0      	LDI  R30,LOW(0)
0000bc bbe7      	OUT  0x17,R30
                 ;PORTB=(0<<PORTB7) | (0<<PORTB6) | (0<<PORTB5) | (0<<PORTB4) | (0<<PORTB3) | (0<<PORTB2) | (0<<PORTB1) | (0<<PORTB0);
0000bd bbe8      	OUT  0x18,R30
                 ;
                 ;DDRC=(1<<DDC7) | (1<<DDC6) | (0<<DDC5) | (1<<DDC4) | (0<<DDC3) | (1<<DDC2) | (1<<DDC1) | (0<<DDC0);
0000be ede6      	LDI  R30,LOW(214)
0000bf bbe4      	OUT  0x14,R30
                 ;PORTC=(1<<PORTC7) | (1<<PORTC6) | (0<<PORTC5) | (0<<PORTC4) | (0<<PORTC3) | (1<<PORTC2) | (1<<PORTC1) | (1<<PORTC0);
0000c0 ece7      	LDI  R30,LOW(199)
0000c1 bbe5      	OUT  0x15,R30
                 ;
                 ;DDRD=(0<<DDD7) | (1<<DDD6) | (1<<DDD5) | (1<<DDD4) | (1<<DDD3) | (0<<DDD2) | (1<<DDD1) | (0<<DDD0);
0000c2 e7ea      	LDI  R30,LOW(122)
0000c3 bbe1      	OUT  0x11,R30
                 ;PORTD=(0<<PORTD7) | (0<<PORTD6) | (0<<PORTD5) | (0<<PORTD4) | (0<<PORTD3) | (0<<PORTD2) | (0<<PORTD1) | (0<<PORTD0);
0000c4 e0e0      	LDI  R30,LOW(0)
0000c5 bbe2      	OUT  0x12,R30
                 ;
                 ;// Timer/Counter 0 initialization
                 ;// Clock source: System Clock
                 ;// Clock value: 7.813 kHz
                 ;// Mode: Normal top=0xFF
                 ;// OC0 output: Disconnected
                 ;// Timer Period: 9.984 ms
                 ;TCCR0=(0<<WGM00) | (0<<COM01) | (0<<COM00) | (0<<WGM01) | (1<<CS02) | (0<<CS01) | (1<<CS00);
0000c6 e0e5      	LDI  R30,LOW(5)
0000c7 bfe3      	OUT  0x33,R30
                 ;TCNT0=0xB2;
0000c8 ebe2      	LDI  R30,LOW(178)
0000c9 bfe2      	OUT  0x32,R30
                 ;OCR0=0x00;
0000ca e0e0      	LDI  R30,LOW(0)
0000cb bfec      	OUT  0x3C,R30
                 ;
                 ;TIMSK=(0<<OCIE2) | (0<<TOIE2) | (0<<TICIE1) | (0<<OCIE1A) | (0<<OCIE1B) | (0<<TOIE1) | (0<<OCIE0) | (1<<TOIE0);
0000cc e0e1      	LDI  R30,LOW(1)
0000cd bfe9      	OUT  0x39,R30
                 ;
                 ;
                 ;
                 ;// ADC initialization
                 ;// ADC Clock frequency: 1000.000 kHz
                 ;// ADC Voltage Reference: AREF pin
                 ;// ADC Auto Trigger Source: ADC Stopped
                 ;ADMUX=ADC_VREF_TYPE;
0000ce e0e0      	LDI  R30,LOW(0)
0000cf b9e7      	OUT  0x7,R30
                 ;ADCSRA=(1<<ADEN) | (0<<ADSC) | (0<<ADATE) | (0<<ADIF) | (0<<ADIE) | (0<<ADPS2) | (1<<ADPS1) | (1<<ADPS0);
0000d0 e8e3      	LDI  R30,LOW(131)
0000d1 b9e6      	OUT  0x6,R30
                 ;SFIOR=(0<<ADTS2) | (0<<ADTS1) | (0<<ADTS0);
0000d2 e0e0      	LDI  R30,LOW(0)
0000d3 bfe0      	OUT  0x30,R30
                 ;#asm("sei")
0000d4 9478      	sei
                 ;
                 ;}
0000d5 9508      	RET
                 ; .FEND
                 ;#include <rf.c>
                 ;//HU?NG D?N G?I-NH?N ? DU?I CNG
                 ;
                 ;// SPI(nRF24L01) commands
                 ;#define READ_REG        0x00  // Define read command to register
                 ;#define WRITE_REG       0x20  // Define write command to register
                 ;#define RD_RX_PLOAD     0x61  // Define RX payload register address
                 ;#define WR_TX_PLOAD     0xA0  // Define TX payload register address
                 ;#define FLUSH_TX        0xE1  // Define flush TX register command
                 ;#define FLUSH_RX        0xE2  // Define flush RX register command
                 ;#define REUSE_TX_PL     0xE3  // Define reuse TX payload register command
                 ;#define NOP             0xFF  // Define No Operation, might be used to read status register
                 ;//------------------------
                 ;#define RX_DR    0x40
                 ;#define TX_DS    0x20
                 ;#define MAX_RT   0x10
                 ;//-------------------------
                 ;
                 ;#define CONFIG          0x00  // 'Config' register address
                 ;#define EN_AA           0x01  // 'Enable Auto Acknowledgment' register address
                 ;#define EN_RXADDR       0x02  // 'Enabled RX addresses' register address
                 ;#define SETUP_AW        0x03  // 'Setup address width' register address
                 ;#define SETUP_RETR      0x04  // 'Setup Auto. Retrans' register address
                 ;#define RF_CH           0x05  // 'RF channel' register address
                 ;#define RF_SETUP        0x06  // 'RF setup' register address
                 ;#define STATUS          0x07  // 'Status' register address
                 ;#define OBSERVE_TX      0x08  // 'Observe TX' register address
                 ;#define RPD              0x09  // 'Carrier Detect' register address
                 ;#define RX_ADDR_P0      0x0A  // 'RX address pipe0' register address
                 ;#define RX_ADDR_P1      0x0B  // 'RX address pipe1' register address
                 ;#define RX_ADDR_P2      0x0C  // 'RX address pipe2' register address
                 ;#define RX_ADDR_P3      0x0D  // 'RX address pipe3' register address
                 ;#define RX_ADDR_P4      0x0E  // 'RX address pipe4' register address
                 ;#define RX_ADDR_P5      0x0F  // 'RX address pipe5' register address
                 ;#define TX_ADDR         0x10  // 'TX address' register address
                 ;#define RX_PW_P0        0x11  // 'RX payload width, pipe0' register address
                 ;#define RX_PW_P1        0x12  // 'RX payload width, pipe1' register address
                 ;#define RX_PW_P2        0x13  // 'RX payload width, pipe2' register address
                 ;#define RX_PW_P3        0x14  // 'RX payload width, pipe3' register address
                 ;#define RX_PW_P4        0x15  // 'RX payload width, pipe4' register address
                 ;#define RX_PW_P5        0x16  // 'RX payload width, pipe5' register address
                 ;#define FIFO_STATUS     0x17  // 'FIFO Status Register' register address
                 ;#define FEATURE         0x1D  // 'FEATURE' register address
                 ;#define DYNPD           0x1C  // 'DYNAMIC PAYLOAD' register address
                 ;/*----------------------
                 ;M?i d?a ch? truy?n-nh?n g?m 5byte
                 ;Ch? d? Multireceive th 1 PRX c th? nh?n du?c cng lc t? 6 PTX khc nhau
                 ;D? li?u s? trao d?i qua cc Pipe, t? Pipe_0 d?n Pipe_5
                 ;T? Pipe_2 tr? di, d?a ch? nh?n s? c 4 byte d?u gi?ng d?a ch? c?a Pipe_1
                 ;
                 ;? bn G?I
                 ;PTX_0: 5byte (Address1)
                 ;PTX_1: 5byte (Address2)
                 ;PTX_2: 4byte (Address2) + 1 byte (Address3)
                 ;PTX_3: 4byte (Address2) + 1 byte (Address4)
                 ;PTX_4: 4byte (Address2) + 1 byte (Address5)
                 ;PTX_5: 4byte (Address2) + 1 byte (Address6)
                 ;
                 ;? bn NH?N do ch? c 1 con nn ta quan tm d?n d?a ch? cc pipe nh?n khc nhau
                 ;Pipe0_RX_Add: 5byte (Address1)
                 ;Pipe1_RX_Add: 5byte (Address2)
                 ;Pipe2_RX_Add: 4byte (Address2) + 1 byte (Address3)
                 ;Pipe3_RX_Add: 4byte (Address2) + 1 byte (Address4)
                 ;Pipe4_RX_Add: 4byte (Address2) + 1 byte (Address5)
                 ;Pipe5_RX_Add: 4byte (Address2) + 1 byte (Address6)
                 ;
                 ;----------------------*/
                 ;unsigned char Send_Add, Address1, Address2, Address3, Address4;
                 ;/*-------SPI---------*/
                 ;void SPI_Write(unsigned char Buff);
                 ;unsigned char SPI_Read(void);
                 ;void RF_Command(unsigned char command);
                 ;void RF_Write(unsigned char Reg_Add, unsigned char Value);
                 ;void RF_Write_Add(unsigned char Reg_Add, unsigned char Value);
                 ;void Common_Config();
                 ;/*-------TX_Mode---------*/
                 ;void RF_Write_Add_TX_2(unsigned char Reg_Add, unsigned char Address, unsigned char Address2);
                 ;void TX_Address(unsigned char Address);
                 ;void TX_Address_2(unsigned char Address, unsigned char Address2);
                 ;void TX_Mode();
                 ;void TX_Config();
                 ;void TX_Config_2();
                 ;void TX_Send();
                 ;/*-------RX_Mode---------*/
                 ;void RF_Write_Add_RX_2(unsigned char Reg_Add, unsigned char Address, unsigned char Address2);
                 ;void RX_Address(unsigned char Address_Pipe, unsigned char Address);
                 ;void RX_Address_2(unsigned char Address_Pipe, unsigned char Address, unsigned char Address2);
                 ;void RX_Mode();
                 ;void RX_Config();
                 ;void RX_Config_4();
                 ;void RX_Read();
                 ;
                 ;
                 ;
                 ;/*----------------------
                 ;C?u trc d? li?u d?ng typedef s? chuy?n d? li?u struct trong m?ng station_info v?i
                 ;cc thu?c tnh c?a struct bn trong v gn vo station_receiver cho bn nh?n ho?c
                 ;station_send cho bn g?i.
                 ;----------------------*/
                 ;typedef struct{
                 ;    int temp;
                 ;    int humid;
                 ;    int light;
                 ;    int soil;
                 ;}station_info;
                 ;
                 ;station_info station_receive;
                 ;station_info station_send;
                 ;/*----------------------
                 ;y l hm ghi d? li?u vo SPI
                 ;Do khng dng modul SPI c?ng trn cc chn I/O c?a AVR
                 ;Nn s? d?ng hm ny d? ghi d? li?u vo
                 ;?ng th?i d?c gi tr? m SPI tr? v?, tham v?ng check du?c ACK
                 ;----------------------*/
                 ;void SPI_Write(unsigned char Buff){
                 ; 0000 0005 void SPI_Write(unsigned char Buff){
                 _SPI_Write:
                 ; .FSTART _SPI_Write
                 ;    unsigned char bit_ctr;
                 ;    for(bit_ctr=0;bit_ctr<8;bit_ctr++){
0000d6 93aa      	ST   -Y,R26
0000d7 931a      	ST   -Y,R17
                 ;	Buff -> Y+1
                 ;	bit_ctr -> R17
0000d8 e010      	LDI  R17,LOW(0)
                 _0x1D:
0000d9 3018      	CPI  R17,8
0000da f4c8      	BRSH _0x1E
                 ;        MOSI = (Buff & 0x80);
0000db 81e9      	LDD  R30,Y+1
0000dc 78e0      	ANDI R30,LOW(0x80)
0000dd f411      	BRNE _0x1F
0000de 98af      	CBI  0x15,7
0000df c001      	RJMP _0x20
                 _0x1F:
0000e0 9aaf      	SBI  0x15,7
                 _0x20:
                 ;        delay_us(5);
                +
0000e1 e08d     +LDI R24 , LOW ( 13 )
                +__DELAY_USB_LOOP :
0000e2 958a     +DEC R24
0000e3 f7f1     +BRNE __DELAY_USB_LOOP
                 	__DELAY_USB 13
                 ;        Buff = (Buff << 1);
0000e4 81e9      	LDD  R30,Y+1
0000e5 0fee      	LSL  R30
0000e6 83e9      	STD  Y+1,R30
                 ;        SCK = 1;
0000e7 9aa9      	SBI  0x15,1
                 ;        delay_us(5);
                +
0000e8 e08d     +LDI R24 , LOW ( 13 )
                +__DELAY_USB_LOOP :
0000e9 958a     +DEC R24
0000ea f7f1     +BRNE __DELAY_USB_LOOP
                 	__DELAY_USB 13
                 ;        Buff |= MISO;
0000eb e0e0      	LDI  R30,0
0000ec 9998      	SBIC 0x13,0
0000ed e0e1      	LDI  R30,1
0000ee 81a9      	LDD  R26,Y+1
0000ef 2bea      	OR   R30,R26
0000f0 83e9      	STD  Y+1,R30
                 ;        SCK = 0;
0000f1 98a9      	CBI  0x15,1
                 ;    }
0000f2 5f1f      	SUBI R17,-1
0000f3 cfe5      	RJMP _0x1D
                 _0x1E:
                 ;}
0000f4 8118      	LDD  R17,Y+0
0000f5 c01b      	RJMP _0x20A0005
                 ; .FEND
                 ;/*----------------------
                 ;y l hm d?c d? li?u ra t? SPI
                 ;Do khng dng modul SPI c?ng trn cc chn I/O c?a AVR
                 ;Nn s? d?ng hm ny d? d?c d? li?u ra
                 ;----------------------*/
                 ;unsigned char SPI_Read(void){
                 ;    unsigned char Buff=0;
                 ;    unsigned char bit_ctr;
                 ;    for(bit_ctr=0;bit_ctr<8;bit_ctr++){
                 ;	Buff -> R17
                 ;	bit_ctr -> R16
                 ;        delay_us(5);
                 ;        Buff = (Buff << 1);
                 ;        SCK = 1;
                 ;        delay_us(5);
                 ;        Buff |= MISO;
                 ;        SCK = 0;
                 ;    }
                 ;    return(Buff);
                 ;}
                 ;/*----------------------
                 ;RF_Command dng d? ghi Command tr?c ti?p vo nRF24L01
                 ;----------------------*/
                 ;void RF_Command(unsigned char command){
                 _RF_Command:
                 ; .FSTART _RF_Command
                 ;    CSN=0;
0000f6 93aa      	ST   -Y,R26
                 ;	command -> Y+0
0000f7 98ae      	CBI  0x15,6
                 ;    SPI_Write(command);
0000f8 940e 027d 	CALL SUBOPT_0x0
                 ;    CSN=1;
                 ;    delay_us(10);
                 ;}
0000fa c024      	RJMP _0x20A0003
                 ; .FEND
                 ;/*----------------------
                 ;RF_Write dng d? ghi d? li?u vo thanh ghi c?a nRF24L01
                 ;----------------------*/
                 ;void RF_Write(unsigned char Reg_Add, unsigned char Value){
                 _RF_Write:
                 ; .FSTART _RF_Write
                 ;    CSN=0;
0000fb 93aa      	ST   -Y,R26
                 ;	Reg_Add -> Y+1
                 ;	Value -> Y+0
0000fc 98ae      	CBI  0x15,6
                 ;    SPI_Write(0b00100000|Reg_Add);
0000fd 81e9      	LDD  R30,Y+1
0000fe 62e0      	ORI  R30,0x20
0000ff 2fae      	MOV  R26,R30
000100 c00d      	RJMP _0x20A0004
                 ;    SPI_Write(Value);
                 ;    CSN=1;
                 ;    delay_us(10);
                 ;}
                 ; .FEND
                 ;/*----------------------
                 ;RF_Write_Add dng d? ghi d?a ch? cho nRF24L01
                 ;L?nh ny dng du?c ? c? PTX v PRX v truy?n nh?n 1-1
                 ;? dy ghi cng lc 5 byte d?a ch? gi?ng h?t nhau vo cng 1 thanh ghi
                 ;Thu?ng dng khi truy?n-nh?n 1-1
                 ;----------------------*/
                 ;void RF_Write_Add(unsigned char Reg_Add, unsigned char Value){
                 _RF_Write_Add:
                 ; .FSTART _RF_Write_Add
                 ;    CSN=0;
000101 93aa      	ST   -Y,R26
                 ;	Reg_Add -> Y+1
                 ;	Value -> Y+0
000102 98ae      	CBI  0x15,6
                 ;    SPI_Write(0b00100000|Reg_Add);
000103 81e9      	LDD  R30,Y+1
000104 62e0      	ORI  R30,0x20
000105 2fae      	MOV  R26,R30
000106 dfcf      	RCALL _SPI_Write
                 ;    SPI_Write(Value);
000107 81a8      	LD   R26,Y
000108 dfcd      	RCALL _SPI_Write
                 ;    SPI_Write(Value);
000109 81a8      	LD   R26,Y
00010a dfcb      	RCALL _SPI_Write
                 ;    SPI_Write(Value);
00010b 81a8      	LD   R26,Y
00010c dfc9      	RCALL _SPI_Write
                 ;    SPI_Write(Value);
00010d 81a8      	LD   R26,Y
                 _0x20A0004:
00010e dfc7      	RCALL _SPI_Write
                 ;    SPI_Write(Value);
00010f 940e 027d 	CALL SUBOPT_0x0
                 ;    CSN=1;
                 ;    delay_us(10);
                 ;}
                 _0x20A0005:
000111 9622      	ADIW R28,2
000112 9508      	RET
                 ; .FEND
                 ;/*----------------------
                 ;RF_Write_Add_TX_2 dng d? ghi d?a ch? TRUY?N cho nRF24L01 trong ch? d? Multireceive
                 ;Khi g?i b?t d?u t? PTX_2 tr? di th b?t bu?c 4byte d?a ch? sau ph?i gi?ng d?a ch?
                 ;c?a PTX_1 nn ph?i ghi 4 byte d?a ch? sau theo Address2 (l d?a ch? c?a PTX_1)
                 ;Ch : Address ? dy ng?m d?nh l d?a ch? c?a PTX_2...5
                 ;----------------------*/
                 ;void RF_Write_Add_TX_2(unsigned char Reg_Add, unsigned char Address, unsigned char Address2){
                 ;    CSN=0;
                 ;	Reg_Add -> Y+2
                 ;	Address -> Y+1
                 ;	Address2 -> Y+0
                 ;    SPI_Write(0b00100000|Reg_Add);
                 ;    SPI_Write(Address);
                 ;    SPI_Write(Address2);
                 ;    SPI_Write(Address2);
                 ;    SPI_Write(Address2);
                 ;    SPI_Write(Address2);
                 ;    CSN=1;
                 ;    delay_us(10);
                 ;}
                 ;/*----------------------
                 ;RF_Write_Add_RX_2 dng d? ghi d?a ch? NH?N cho nRF24L01 trong ch? d? Multireceive
                 ;Khi g?i b?t d?u t? PTX_2 tr? di th b?t bu?c 4byte d?a ch? sau ph?i gi?ng d?a ch?
                 ;c?a PTX_1 nn ph?i ghi 4 byte d?a ch? sau theo Address2 (l d?a ch? c?a PTX_1)
                 ;Ch : Address ? dy ng?m d?nh l d?a ch? c?a PTX_2...5
                 ;C l? do bn PTX Address du?c ghi vo d?u tin nn ? PRX Address ph?i du?c ghi vo
                 ;cu?i cng. Theo logic truy?n - nh?n n?i ti?p
                 ;----------------------*/
                 ;void RF_Write_Add_RX_2(unsigned char Reg_Add, unsigned char Address, unsigned char Address2){
                 ;    CSN=0;
                 ;	Reg_Add -> Y+2
                 ;	Address -> Y+1
                 ;	Address2 -> Y+0
                 ;    SPI_Write(0b00100000|Reg_Add);
                 ;    SPI_Write(Address2);
                 ;    SPI_Write(Address2);
                 ;    SPI_Write(Address2);
                 ;    SPI_Write(Address2);
                 ;    SPI_Write(Address);
                 ;    CSN=1;
                 ;    delay_us(10);
                 ;}
                 ;/*----------------------
                 ;TX_Address dng d? ghi d?a ch? vo thanh ghi d?a ch? c?a PTX ? ch? d? truy?n nh?n 1-1
                 ;ho?c ch? d? Multireceive th ? cc PTX_0 v PTX_1
                 ;----------------------*/
                 ;void TX_Address(unsigned char Address){
                 _TX_Address:
                 ; .FSTART _TX_Address
                 ;    CSN=0;
000113 93aa      	ST   -Y,R26
                 ;	Address -> Y+0
000114 98ae      	CBI  0x15,6
                 ;    RF_Write(SETUP_AW,0b00000011); //ghi vo d? r?ng d?a ch? -  5byte
000115 e0e3      	LDI  R30,LOW(3)
000116 93ea      	ST   -Y,R30
000117 e0a3      	LDI  R26,LOW(3)
000118 dfe2      	RCALL _RF_Write
                 ;    CSN=1;
000119 940e 0285 	CALL SUBOPT_0x1
                 ;    delay_us(10);
                 ;    CSN=0;
                 ;    RF_Write_Add(TX_ADDR, Address); //thanh ghi d?a ch? truy?n
00011b e1e0      	LDI  R30,LOW(16)
00011c 93ea      	ST   -Y,R30
00011d 81a9      	LDD  R26,Y+1
00011e dfe2      	RCALL _RF_Write_Add
                 ;}
                 _0x20A0003:
00011f 9621      	ADIW R28,1
000120 9508      	RET
                 ; .FEND
                 ;/*----------------------
                 ;TX_Address_2 dng d? ghi d?a ch? vo thanh ghi d?a ch? c?a PTX ? ch? d? Multireceive
                 ;L?nh ny b?t d?u ghi ? cc PTX_2 tr? di d?n PTX_5
                 ;? r?ng d?a ch? cung l 5byte
                 ;----------------------*/
                 ;void TX_Address_2(unsigned char Address, unsigned char Address2){
                 ;    CSN=0;
                 ;	Address -> Y+1
                 ;	Address2 -> Y+0
                 ;    RF_Write(SETUP_AW,0b00000011);
                 ;    CSN=1;
                 ;    delay_us(10);
                 ;    CSN=0;
                 ;    RF_Write_Add_TX_2(TX_ADDR, Address, Address2);
                 ;}
                 ;/*----------------------
                 ;RX_Address dng d? ghi d?a ch? vo thanh ghi d?a ch? c?a PRX ? ch? d? truy?n nh?n 1-1
                 ;ho?c ch? d? Multireceive th ? cc Pipe_0 v Pipe_1
                 ;? r?ng d?a ch? l 5byte
                 ;----------------------*/
                 ;void RX_Address(unsigned char Address_Pipe, unsigned char Address){
                 ;    CSN=0;
                 ;	Address_Pipe -> Y+1
                 ;	Address -> Y+0
                 ;    RF_Write(SETUP_AW,0b00000011);
                 ;    CSN=1;
                 ;    delay_us(10);
                 ;    CSN=0;
                 ;    RF_Write_Add(Address_Pipe, Address);
                 ;}
                 ;/*----------------------
                 ;RX_Address_2 dng d? ghi d?a ch? vo thanh ghi d?a ch? c?a PRX ? ch? d? Multireceive
                 ;L?nh ny b?t d?u ghi ? cc Pipe_2 tr? di d?n Pipe_5
                 ;? r?ng d?a ch? cung l 5byte
                 ;Address2 ng?m hi?u l d?a ch? c?a pipe 1
                 ;Address ng?m hi?u l d?a ch? c?a Pipe t? 2 - Pipe 5
                 ;----------------------*/
                 ;void RX_Address_2(unsigned char Address_Pipe, unsigned char Address, unsigned char Address2){
                 ;    CSN=0;
                 ;	Address_Pipe -> Y+2
                 ;	Address -> Y+1
                 ;	Address2 -> Y+0
                 ;    RF_Write(SETUP_AW,0b00000011);
                 ;    CSN=1;
                 ;    delay_us(10);
                 ;    CSN=0;
                 ;    RF_Write_Add_RX_2(Address_Pipe, Address, Address2);  //ghi vao pipe number, d?a ch? v d?a ch? pipe 1
                 ;}
                 ;/*----------------------
                 ;Config cho nRF24L01 ? ch? d? ho?t d?ng
                 ;M?c d?nh l ch? d? truy?n d? li?u, thanh ghi CONFIG 0x1E
                 ;Flush TX v RX d? xo h?t d? li?u trong b? d?m
                 ;----------------------*/
                 ;void Common_Config(){
                 _Common_Config:
                 ; .FSTART _Common_Config
                 ;    CE=1;
000121 9aaa      	SBI  0x15,2
                 ;    delay_us(700);
                +
000122 e788     +LDI R24 , LOW ( 1400 )
000123 e095     +LDI R25 , HIGH ( 1400 )
                +__DELAY_USW_LOOP :
000124 9701     +SBIW R24 , 1
000125 f7f1     +BRNE __DELAY_USW_LOOP
                 	__DELAY_USW 1400
                 ;    CE=0;
000126 98aa      	CBI  0x15,2
                 ;    CSN=1;
000127 9aae      	SBI  0x15,6
                 ;    SCK=0;
000128 98a9      	CBI  0x15,1
                 ;    delay_us(100);
                +
000129 ec88     +LDI R24 , LOW ( 200 )
00012a e090     +LDI R25 , HIGH ( 200 )
                +__DELAY_USW_LOOP :
00012b 9701     +SBIW R24 , 1
00012c f7f1     +BRNE __DELAY_USW_LOOP
                 	__DELAY_USW 200
                 ;    RF_Write(STATUS,0b01111110); //STATUS 0x7E; clear all IRQ flag
00012d 940e 028b 	CALL SUBOPT_0x2
                 ;    RF_Command(0b11100010);    //0xE2; flush RX
00012f eea2      	LDI  R26,LOW(226)
000130 dfc5      	RCALL _RF_Command
                 ;    RF_Command(0b11100001);    //Flush TX 0xE1
000131 eea1      	LDI  R26,LOW(225)
000132 dfc3      	RCALL _RF_Command
                 ;    RF_Write(CONFIG,0b00011111); //0x1E; truy?n d? li?u
000133 e0e0      	LDI  R30,LOW(0)
000134 93ea      	ST   -Y,R30
000135 e1af      	LDI  R26,LOW(31)
000136 dfc4      	RCALL _RF_Write
                 ;    delay_ms(2);
000137 e0a2      	LDI  R26,LOW(2)
000138 e0b0      	LDI  R27,0
000139 940e 0295 	CALL _delay_ms
                 ;    RF_Write(RF_CH,0b00000010); //RF_CH 0x05 Chanel 0 RF = 2400 + RF_CH* (1or 2 M)
00013b e0e5      	LDI  R30,LOW(5)
00013c 93ea      	ST   -Y,R30
00013d e0a2      	LDI  R26,LOW(2)
00013e dfbc      	RCALL _RF_Write
                 ;    RF_Write(RF_SETUP,0b00000111); //RF_SETUP 0x07 = 1M, 0dBm
00013f e0e6      	LDI  R30,LOW(6)
000140 93ea      	ST   -Y,R30
000141 e0a7      	LDI  R26,LOW(7)
000142 dfb8      	RCALL _RF_Write
                 ;    RF_Write(FEATURE, 0b00000100); //0x1D Dynamic payload length
000143 e1ed      	LDI  R30,LOW(29)
000144 93ea      	ST   -Y,R30
000145 e0a4      	LDI  R26,LOW(4)
000146 dfb4      	RCALL _RF_Write
                 ;    RF_Write(EN_AA, 0b00000000); //0x1D Dynamic payload length
000147 e0e1      	LDI  R30,LOW(1)
000148 93ea      	ST   -Y,R30
000149 e0a0      	LDI  R26,LOW(0)
00014a c017      	RJMP _0x20A0002
                 ;}
                 ; .FEND
                 ;/*----------------------
                 ;ua nRF24L01 v? ch? d? truy?n d? li?u
                 ;Lc ny c?n xo h?t cc thanh ghi trong IRQ v dua chn CE ? m?c th?p
                 ;----------------------*/
                 ;void TX_Mode(){
                 _TX_Mode:
                 ; .FSTART _TX_Mode
                 ;    CE=0;
00014b 98aa      	CBI  0x15,2
                 ;    RF_Write(CONFIG,0b00011110);
00014c e0e0      	LDI  R30,LOW(0)
00014d 93ea      	ST   -Y,R30
00014e e1ae      	LDI  R26,LOW(30)
00014f dfab      	RCALL _RF_Write
                 ;    delay_us(130);    //nrf can de khoi dong vao rx mode hoac txmode
                +
000150 e084     +LDI R24 , LOW ( 260 )
000151 e091     +LDI R25 , HIGH ( 260 )
                +__DELAY_USW_LOOP :
000152 9701     +SBIW R24 , 1
000153 f7f1     +BRNE __DELAY_USW_LOOP
                 	__DELAY_USW 260
                 ;}
000154 9508      	RET
                 ; .FEND
                 ;/*----------------------
                 ;ua nRF24L01 v? ch? d? nh?n d? li?u
                 ;Lc ny c?n xo h?t cc thanh ghi trong IRQ v dua chn CE ln m?c cao
                 ;----------------------*/
                 ;void RX_Mode(){
                 ;    RF_Write(CONFIG,0b00011111);
                 ;    CE=1;
                 ;    delay_us(130);    //nrf can de khoi dong vao rx mode hoac txmode
                 ;}
                 ;/*----------------------
                 ;Config cho nRF24L01 ? ch? d? TRUY?N d? li?u 1-1 ho?c ch? d? Multireceive
                 ;th config cho cc PTX_0 v PTX_1
                 ;Xo h?t d? li?u trong thanh ghi IRQ
                 ;Flush h?t d? li?u ? b? d?m nh?n v truy?n.
                 ;Ci d?t dynamic payload ? Pipe_0
                 ;Enable Pipe_0 d? truy?n d? li?u
                 ;----------------------*/
                 ;void TX_Config(){
                 _TX_Config:
                 ; .FSTART _TX_Config
                 ;    RF_Write(STATUS,0b01111110); //xo IRQ flag
000155 940e 028b 	CALL SUBOPT_0x2
                 ;    RF_Command(0b11100001); //Flush TX 0xE1
000157 eea1      	LDI  R26,LOW(225)
000158 df9d      	RCALL _RF_Command
                 ;    TX_Address(Send_Add);   //Ghi d?a ch? g?i d? li?u vo nRF24L01
000159 2da6      	MOV  R26,R6
00015a dfb8      	RCALL _TX_Address
                 ;    RF_Write(DYNPD,0b00000001); //?t ch? d? dynamic paypload ? pipe 0
00015b e1ec      	LDI  R30,LOW(28)
00015c 93ea      	ST   -Y,R30
00015d e0a1      	LDI  R26,LOW(1)
00015e df9c      	RCALL _RF_Write
                 ;    RF_Write(EN_RXADDR,0b00000001); //Enable Pipe 0
00015f e0e2      	LDI  R30,LOW(2)
000160 93ea      	ST   -Y,R30
000161 e0a1      	LDI  R26,LOW(1)
                 _0x20A0002:
000162 df98      	RCALL _RF_Write
                 ;}
000163 9508      	RET
                 ; .FEND
                 ;/*----------------------
                 ;TX_Config_2()
                 ;Config cho nRF24L01 ? ch? d? TRUY?N d? li?u Multireceive
                 ;Dng cho cc PTX t? PTX_2 d?n PTX_5
                 ;Xo h?t d? li?u trong thanh ghi IRQ
                 ;Flush h?t d? li?u ? b? d?m nh?n v truy?n.
                 ;G?i di th dng Pipe_0 ? PTX nn ch? ci d?t dynamic payload ? Pipe_0
                 ;Enable Pipe_0 d? truy?n d? li?u
                 ;----------------------*/
                 ;void TX_Config_2(){
                 ;    RF_Write(STATUS,0b01111110); //xo IRQ flag
                 ;    RF_Command(0b11100001); //Flush TX 0xE1
                 ;    TX_Address_2(Send_Add, Address2); //Ghi d?a ch? g?i d? li?u vo nRF24L01
                 ;    RF_Write(DYNPD,0b00000001); //?t ch? d? dynamic paypload ? pipe 0
                 ;    RF_Write(EN_RXADDR,0b00000001); //Enable Pipe 0
                 ;}
                 ;/*----------------------
                 ;RX_Config()
                 ;Config cho nRF24L01 ? ch? d? NH?N d? li?u 1-1
                 ;Xo h?t d? li?u trong thanh ghi IRQ
                 ;Flush h?t d? li?u ? b? d?m nh?n v truy?n.
                 ;M? cc Pipe t? 0 v ci d?t ch? d? dynamic payload
                 ;? Pipe_0 d?a ch? du?c ghi vo theo 5 byte Address1
                 ;----------------------*/
                 ;void RX_Config(){
                 ;    RF_Write(STATUS,0b01111110); //xo IRQ flag
                 ;    RF_Command(0b11100010); //Flush RX
                 ;    RF_Write(DYNPD,0b00000001); //?t ch? d? dynamic paypload ? pipe 0
                 ;    RF_Write(EN_RXADDR,0b00000001); //Enable RX ? Pipe 0
                 ;    RX_Address(RX_ADDR_P0, Address1);
                 ;}
                 ;/*----------------------
                 ;RX_Config_4()
                 ;Config cho nRF24L01 ? ch? d? NH?N d? li?u Multireceive (4 Pipe)
                 ;Xo h?t d? li?u trong thanh ghi IRQ
                 ;Flush h?t d? li?u ? b? d?m nh?n v truy?n.
                 ;M? cc Pipe t? 0 d?n 4 v ci d?t ch? d? dynamic payload
                 ;? Pipe_0 d?a ch? du?c ghi vo theo 5 byte Address1
                 ;? Pipe_1 d?a ch? du?c ghi vo theo 5 byte Address2
                 ;? Pipe_2 d?a ch? du?c ghi vo theo 4 byte Address2 v 1 byte Address3
                 ;? Pipe_3 d?a ch? du?c ghi vo theo 4 byte Address2 v 1 byte Address4
                 ;----------------------*/
                 ;void RX_Config_4(){
                 ;    RF_Write(STATUS,0b01111110); //xo IRQ flag
                 ;    RF_Command(0b11100010); //0xE2 = Flush RX
                 ;    RF_Write(DYNPD,0b00001111); //?t ch? d? dynamic paypload ? pipe 0-4
                 ;    RF_Write(EN_RXADDR,0b00001111); //Enable RX ? Pipe 0 - pipe 4
                 ;    RX_Address(RX_ADDR_P0, Address1);
                 ;    RX_Address(RX_ADDR_P1, Address2);
                 ;    RX_Address_2(RX_ADDR_P2, Address3, Address2);
                 ;    RX_Address_2(RX_ADDR_P3, Address4, Address2);
                 ;}
                 ;/*----------------------
                 ;RX_Config_6()
                 ;Config cho nRF24L01 ? ch? d? NH?N d? li?u Multireceive (6 Pipe)
                 ;Xo h?t d? li?u trong thanh ghi IRQ
                 ;Flush h?t d? li?u ? b? d?m nh?n v truy?n.
                 ;M? cc Pipe t? 0 d?n 4 v ci d?t ch? d? dynamic payload
                 ;? Pipe_0 d?a ch? du?c ghi vo theo 5 byte Address1
                 ;? Pipe_1 d?a ch? du?c ghi vo theo 5 byte Address2
                 ;? Pipe_2 d?a ch? du?c ghi vo theo 4 byte Address2 v 1 byte Address3
                 ;? Pipe_3 d?a ch? du?c ghi vo theo 4 byte Address2 v 1 byte Address4
                 ;? Pipe_4 d?a ch? du?c ghi vo theo 4 byte Address2 v 1 byte Address5
                 ;? Pipe_5 d?a ch? du?c ghi vo theo 4 byte Address2 v 1 byte Address6
                 ;----------------------*/
                 ;
                 ;/*----------------------
                 ;TX_Send()
                 ;Config cho nRF24L01 ? ch? d? TRUY?N d? li?u ? ch? d? 1-1
                 ;Ho?c Multireceive nhung ? cc PTX_0 v PTX_1
                 ;Xo h?t d? li?u trong thanh ghi IRQ
                 ;Flush h?t d? li?u ? b? d?m truy?n.
                 ;Ghi d? li?u c?n g?i vo payload truy?n
                 ;Sau khi truy?n di th xo h?t cc IRQ
                 ;Ghi d?a ch? g?i d? li?u vo nRF24L01 - KHNG HI?U CH? NY
                 ;Sau khi g?i d? li?u di th FLUSH h?t b? d?m G?I
                 ;----------------------*/
                 ;void TX_Send(){
                 _TX_Send:
                 ; .FSTART _TX_Send
                 ;    TX_Address(Send_Add); //Ghi d?a ch? g?i d? li?u vo nRF24L01
000164 2da6      	MOV  R26,R6
000165 dfad      	RCALL _TX_Address
                 ;    CSN=1;
000166 940e 0285 	CALL SUBOPT_0x1
                 ;    delay_us(10);
                 ;    CSN=0;
                 ;    SPI_Write(0b11100001); //0xE1=Define flush TX register command
000168 eea1      	LDI  R26,LOW(225)
000169 df6c      	RCALL _SPI_Write
                 ;    CSN=1;
00016a 940e 0285 	CALL SUBOPT_0x1
                 ;    delay_us(10);
                 ;    CSN=0;
                 ;    SPI_Write(0b10100000); //0xA0 = Define TX payload register address
00016c eaa0      	LDI  R26,LOW(160)
00016d df68      	RCALL _SPI_Write
                 ;    SPI_Write(station_send.temp); //ghi d? li?u vo payload
00016e 91a0 0272 	LDS  R26,_station_send
000170 df65      	RCALL _SPI_Write
                 ;    SPI_Write(station_send.humid);
                +
000171 91a0 0274+LDS R26 , _station_send + ( 2 )
                 	__GETB2MN _station_send,2
000173 df62      	RCALL _SPI_Write
                 ;    SPI_Write(station_send.light);
                +
000174 91a0 0276+LDS R26 , _station_send + ( 4 )
                 	__GETB2MN _station_send,4
000176 df5f      	RCALL _SPI_Write
                 ;    SPI_Write(station_send.soil);
                +
000177 91a0 0278+LDS R26 , _station_send + ( 6 )
                 	__GETB2MN _station_send,6
000179 df5c      	RCALL _SPI_Write
                 ;    CSN=1;
00017a 9aae      	SBI  0x15,6
                 ;    CE=1;
00017b 9aaa      	SBI  0x15,2
                 ;    delay_us(500);
                +
00017c ee88     +LDI R24 , LOW ( 1000 )
00017d e093     +LDI R25 , HIGH ( 1000 )
                +__DELAY_USW_LOOP :
00017e 9701     +SBIW R24 , 1
00017f f7f1     +BRNE __DELAY_USW_LOOP
                 	__DELAY_USW 1000
                 ;    CE=0;
000180 98aa      	CBI  0x15,2
                 ;    RF_Write(0x07,0b01111110); //STATUS, 0x7E-clear IRQ flag (Tam test 0x70 van chay)
000181 940e 028b 	CALL SUBOPT_0x2
                 ;    TX_Address(Send_Add); //Ghi d?a ch? g?i d? li?u vo nRF24L01
000183 2da6      	MOV  R26,R6
000184 df8e      	RCALL _TX_Address
                 ;    RF_Command(0b11100001);//Flush TX 0xE1
000185 eea1      	LDI  R26,LOW(225)
000186 df6f      	RCALL _RF_Command
                 ;}
000187 9508      	RET
                 ; .FEND
                 ;/*----------------------
                 ;TX_Send_2()
                 ;Config cho nRF24L01 ? ch? d? TRUY?N d? li?u Multireceive t? PTX_2 v PTX_5
                 ;Xo h?t d? li?u trong thanh ghi IRQ
                 ;Flush h?t d? li?u ? b? d?m truy?n.
                 ;Ghi d? li?u c?n g?i vo payload truy?n
                 ;Sau khi truy?n di th xo h?t cc IRQ
                 ;Ghi d?a ch? g?i d? li?u vo nRF24L01 - KHNG HI?U CH? NY
                 ;Sau khi g?i d? li?u di th FLUSH h?t b? d?m G?I
                 ;----------------------*/
                 ;
                 ;/*----------------------
                 ;RX_Read()
                 ;?c d? li?u t? buffer c?a b? NH?N d? li?u
                 ;?c t? b? d?m RX cc gi tr? du?c luu vo khi nh?n du?c
                 ;Sau khi d?c xong th clear h?t cc thanh ghi IRQ
                 ;v Flush b? d?m nh?n
                 ;----------------------*/
                 ;void RX_Read(){
                 ;    CE=0;
                 ;    CSN=1;
                 ;    delay_us(10);
                 ;    CSN=0;
                 ;    SPI_Write(0b01100001); //0x61 = Define RX payload register address
                 ;    delay_us(10);
                 ;    station_receive.temp = SPI_Read();
                 ;    station_receive.humid = SPI_Read();
                 ;    station_receive.light = SPI_Read();
                 ;    station_receive.soil = SPI_Read();
                 ;    CSN=1;
                 ;    CE=1;
                 ;    RF_Write(STATUS,0b01111110); // 0x7E-clear IRQ flag
                 ;    RF_Command(0b11100010); //0xE2 = Flush RX
                 ;}
                 ;
                 ;
                 ;
                 ;/*------------
                 ;// Chuong trnh g?i dnh cho tr?m 1
                 ;Send_Add = 0xA1;;  //y chnh l Send_Add lc khai bo  ???
                 ;Common_Config();
                 ;TX_mode();
                 ;TX_config();
                 ;TX_send();
                 ;
                 ;// Chuong trnh g?i dnh cho tr?m 2
                 ;Send_Add = 0xA2;
                 ;Common_Config();
                 ;TX_mode();
                 ;TX_config();
                 ;TX_send();
                 ;
                 ;// Chuong trnh g?i dnh cho tr?m 3
                 ;Send_Add=0xA3;
                 ;Address2=0xA2;
                 ;Common_Config();
                 ;TX_mode();
                 ;TX_config_2();
                 ;TX_send_2();
                 ;
                 ;// Chuong trnh g?i dnh cho tr?m 4
                 ;Send_Add=0xA4;
                 ;Address2=0xA2;
                 ;Common_Config();
                 ;TX_mode();
                 ;TX_config_2();
                 ;TX_send_2();
                 ;// Chuong trnh g?i dnh cho tr?m 5
                 ;Address2=0xA2;
                 ;Address5=0xA5;
                 ;Common_Config();
                 ;TX_mode();
                 ;TX_config_2();
                 ;TX_send_2();
                 ;// Chuong trnh g?i dnh cho tr?m 6
                 ;Address2=0xA2;
                 ;Address6=0xA6;
                 ;Common_Config();
                 ;TX_mode();
                 ;TX_config_2();
                 ;TX_send_2();
                 ;// Chuong trnh nh?n dnh cho 4 tr?m
                 ;Address1 = 0xA1;
                 ;Address2 = 0xA2;
                 ;Address3 = 0xA3;
                 ;Address4 = 0xA4;
                 ;Common_Config();
                 ;RX_Mode();
                 ;RX_Config_4();
                 ;if(IRQ == 0){
                 ;        RX_Read();
                 ;            }
                 ;// Chuong trnh nh?n dnh cho 6 tr?m
                 ;Address1 = 0xA1;
                 ;Address2 = 0xA2;
                 ;Address3 = 0xA3;
                 ;Address4 = 0xA4;
                 ;Address5 = 0xA5;
                 ;Address6 = 0xA6;
                 ;Common_Config();
                 ;RX_Mode();
                 ;RX_Config_6();
                 ;if(IRQ == 0){
                 ;        RX_Read();
                 ;            }
                 ;--------------*/
                 ;#include <dht11.c>
                 ;//config DHT11
                 ;#define         DHT_DATA_IN     PIND.2
                 ;#define         DHT_DATA_OUT    PORTD.2
                 ;#define         DHT_DDR_DATA    DDRD.2
                 ;#define DHT_ER       0
                 ;#define DHT_OK       1
                 ;unsigned char dht_nhiet_do,dht_do_am;
                 ;
                 ;unsigned char DHT_GetTemHumi (unsigned char *tem, unsigned char *humi){
                 ; 0000 0006 unsigned char DHT_GetTemHumi (unsigned char *tem, unsigned char *humi){
                 _DHT_GetTemHumi:
                 ; .FSTART _DHT_GetTemHumi
                 ;    unsigned char buffer[5]={0,0,0,0,0};
                 ;    unsigned char ii,i,checksum;
                 ;
                 ;    DHT_DDR_DATA=1;   // set la cong ra
000188 93ba      	ST   -Y,R27
000189 93aa      	ST   -Y,R26
00018a 9725      	SBIW R28,5
00018b e0e0      	LDI  R30,LOW(0)
00018c 83e8      	ST   Y,R30
00018d 83e9      	STD  Y+1,R30
00018e 83ea      	STD  Y+2,R30
00018f 83eb      	STD  Y+3,R30
000190 83ec      	STD  Y+4,R30
000191 940e 02c6 	CALL __SAVELOCR4
                 ;	*tem -> Y+11
                 ;	*humi -> Y+9
                 ;	buffer -> Y+4
                 ;	ii -> R17
                 ;	i -> R16
                 ;	checksum -> R19
000193 9a8a      	SBI  0x11,2
                 ;    DHT_DATA_OUT=1;
000194 9a92      	SBI  0x12,2
                 ;    delay_us(60);
                +
000195 ea80     +LDI R24 , LOW ( 160 )
                +__DELAY_USB_LOOP :
000196 958a     +DEC R24
000197 f7f1     +BRNE __DELAY_USB_LOOP
                 	__DELAY_USB 160
                 ;    DHT_DATA_OUT=0;
000198 9892      	CBI  0x12,2
                 ;    delay_ms(25);
000199 e1a9      	LDI  R26,LOW(25)
00019a e0b0      	LDI  R27,0
00019b 940e 0295 	CALL _delay_ms
                 ;    DHT_DATA_OUT=1;
00019d 9a92      	SBI  0x12,2
                 ;    DHT_DDR_DATA=0;   //set la loi vao
00019e 988a      	CBI  0x11,2
                 ;    delay_us(60);
                +
00019f ea80     +LDI R24 , LOW ( 160 )
                +__DELAY_USB_LOOP :
0001a0 958a     +DEC R24
0001a1 f7f1     +BRNE __DELAY_USB_LOOP
                 	__DELAY_USB 160
                 ;    if(DHT_DATA_IN){
0001a2 9b82      	SBIS 0x10,2
0001a3 c002      	RJMP _0x86
                 ;        return DHT_ER ;
0001a4 e0e0      	LDI  R30,LOW(0)
0001a5 c044      	RJMP _0x20A0001
                 ;    }
                 ;    else while(!(DHT_DATA_IN));    //Doi DaTa len 1
                 _0x86:
                 _0x88:
0001a6 9b82      	SBIS 0x10,2
0001a7 cffe      	RJMP _0x88
                 ;    delay_us(60);
                +
0001a8 ea80     +LDI R24 , LOW ( 160 )
                +__DELAY_USB_LOOP :
0001a9 958a     +DEC R24
0001aa f7f1     +BRNE __DELAY_USB_LOOP
                 	__DELAY_USB 160
                 ;    if(!DHT_DATA_IN){
0001ab 9982      	SBIC 0x10,2
0001ac c002      	RJMP _0x8B
                 ;        return DHT_ER;
0001ad e0e0      	LDI  R30,LOW(0)
0001ae c03b      	RJMP _0x20A0001
                 ;    }
                 ;    else while((DHT_DATA_IN));     //Doi Data ve 0
                 _0x8B:
                 _0x8D:
0001af 9982      	SBIC 0x10,2
0001b0 cffe      	RJMP _0x8D
                 ;    //Bat dau doc du lieu
                 ;    for(i=0;i<5;i++)
0001b1 e000      	LDI  R16,LOW(0)
                 _0x91:
0001b2 3005      	CPI  R16,5
0001b3 f500      	BRSH _0x92
                 ;    {
                 ;        for(ii=0;ii<8;ii++)
0001b4 e010      	LDI  R17,LOW(0)
                 _0x94:
0001b5 3018      	CPI  R17,8
0001b6 f4d8      	BRSH _0x95
                 ;        {
                 ;        while((!DHT_DATA_IN));//Doi Data len 1
                 _0x96:
0001b7 9b82      	SBIS 0x10,2
0001b8 cffe      	RJMP _0x96
                 ;        delay_us(50);
                +
0001b9 e885     +LDI R24 , LOW ( 133 )
                +__DELAY_USB_LOOP :
0001ba 958a     +DEC R24
0001bb f7f1     +BRNE __DELAY_USB_LOOP
                 	__DELAY_USB 133
                 ;        if(DHT_DATA_IN)
0001bc 9b82      	SBIS 0x10,2
0001bd c012      	RJMP _0x99
                 ;            {
                 ;            buffer[i]|=(1<<(7-ii));  //lay 7bit du lieu gui ve
0001be 2fe0      	MOV  R30,R16
0001bf e0f0      	LDI  R31,0
0001c0 01de      	MOVW R26,R28
0001c1 9614      	ADIW R26,4
0001c2 0fea      	ADD  R30,R26
0001c3 1ffb      	ADC  R31,R27
0001c4 01bf      	MOVW R22,R30
0001c5 8010      	LD   R1,Z
0001c6 e0e7      	LDI  R30,LOW(7)
0001c7 1be1      	SUB  R30,R17
0001c8 e0a1      	LDI  R26,LOW(1)
0001c9 940e 029f 	CALL __LSLB12
0001cb 29e1      	OR   R30,R1
0001cc 01db      	MOVW R26,R22
0001cd 93ec      	ST   X,R30
                 ;            while((DHT_DATA_IN));//Doi Data xuong 0
                 _0x9A:
0001ce 9982      	SBIC 0x10,2
0001cf cffe      	RJMP _0x9A
                 ;            }
                 ;        }
                 _0x99:
0001d0 5f1f      	SUBI R17,-1
0001d1 cfe3      	RJMP _0x94
                 _0x95:
                 ;    }
0001d2 5f0f      	SUBI R16,-1
0001d3 cfde      	RJMP _0x91
                 _0x92:
                 ;    //Tinh toan check sum
                 ;    checksum=buffer[0]+buffer[1]+buffer[2]+buffer[3];
0001d4 81ed      	LDD  R30,Y+5
0001d5 81ac      	LDD  R26,Y+4
0001d6 0fea      	ADD  R30,R26
0001d7 81ae      	LDD  R26,Y+6
0001d8 0fea      	ADD  R30,R26
0001d9 81af      	LDD  R26,Y+7
0001da 0fea      	ADD  R30,R26
0001db 2f3e      	MOV  R19,R30
                 ;    //Kiem tra check sum
                 ;    if((checksum)!=buffer[4]){
0001dc 85e8      	LDD  R30,Y+8
0001dd 17e3      	CP   R30,R19
0001de f011      	BREQ _0x9D
                 ;        return DHT_ER;
0001df e0e0      	LDI  R30,LOW(0)
0001e0 c009      	RJMP _0x20A0001
                 ;    }
                 ;    //Lay du lieu
                 ;    *tem  =   buffer[2];
                 _0x9D:
0001e1 81ee      	LDD  R30,Y+6
0001e2 85ab      	LDD  R26,Y+11
0001e3 85bc      	LDD  R27,Y+11+1
0001e4 93ec      	ST   X,R30
                 ;    *humi =   buffer[0];
0001e5 81ec      	LDD  R30,Y+4
0001e6 85a9      	LDD  R26,Y+9
0001e7 85ba      	LDD  R27,Y+9+1
0001e8 93ec      	ST   X,R30
                 ;    return DHT_OK;
0001e9 e0e1      	LDI  R30,LOW(1)
                 _0x20A0001:
0001ea 940e 02cb 	CALL __LOADLOCR4
0001ec 962d      	ADIW R28,13
0001ed 9508      	RET
                 ;}
                 ; .FEND
                 ;#include <light.c>
                 ;station_info station_send;
                 ;
                 ;void main(void)
                 ; 0000 000B {
                 _main:
                 ; .FSTART _main
                 ; 0000 000C Send_Add = 0xA1;
0001ee eae1      	LDI  R30,LOW(161)
0001ef 2e6e      	MOV  R6,R30
                 ; 0000 000D 
                 ; 0000 000E init_system();
0001f0 dec6      	RCALL _init_system
                 ; 0000 000F #asm("sei");
0001f1 9478      	sei
                 ; 0000 0010 Common_Config();
0001f2 df2e      	RCALL _Common_Config
                 ; 0000 0011 TX_Mode();
0001f3 df57      	RCALL _TX_Mode
                 ; 0000 0012 TX_Config();
0001f4 df60      	RCALL _TX_Config
                 ; 0000 0013 while (1)
                 _0x9E:
                 ; 0000 0014       {
                 ; 0000 0015             light = read_adc(1)/6;
0001f5 e0a1      	LDI  R26,LOW(1)
0001f6 deb3      	RCALL _read_adc
0001f7 01df      	MOVW R26,R30
0001f8 e0e6      	LDI  R30,LOW(6)
0001f9 e0f0      	LDI  R31,HIGH(6)
0001fa 940e 02b3 	CALL __DIVW21U
0001fc 93e0 0260 	STS  _light,R30
0001fe 93f0 0261 	STS  _light+1,R31
                 ; 0000 0016             soil  = read_adc(0)/10;
000200 e0a0      	LDI  R26,LOW(0)
000201 dea8      	RCALL _read_adc
000202 01df      	MOVW R26,R30
000203 e0ea      	LDI  R30,LOW(10)
000204 e0f0      	LDI  R31,HIGH(10)
000205 940e 02b3 	CALL __DIVW21U
000207 93e0 0262 	STS  _soil,R30
000209 93f0 0263 	STS  _soil+1,R31
                 ; 0000 0017             if (light >=99)
00020b 940e 0290 	CALL SUBOPT_0x3
00020d 36a3      	CPI  R26,LOW(0x63)
00020e e0e0      	LDI  R30,HIGH(0x63)
00020f 07be      	CPC  R27,R30
000210 f030      	BRLO _0xA1
                 ; 0000 0018                 {
                 ; 0000 0019                     light =90;
000211 e5ea      	LDI  R30,LOW(90)
000212 e0f0      	LDI  R31,HIGH(90)
000213 93e0 0260 	STS  _light,R30
000215 93f0 0261 	STS  _light+1,R31
                 ; 0000 001A                 }
                 ; 0000 001B             if ((light > 30)&(light<=40))
                 _0xA1:
000217 940e 0290 	CALL SUBOPT_0x3
000219 e1ee      	LDI  R30,LOW(30)
00021a e0f0      	LDI  R31,HIGH(30)
00021b 940e 02ad 	CALL __GTW12U
00021d 2e0e      	MOV  R0,R30
00021e 940e 0290 	CALL SUBOPT_0x3
000220 e2e8      	LDI  R30,LOW(40)
000221 e0f0      	LDI  R31,HIGH(40)
000222 940e 02a7 	CALL __LEW12U
000224 21e0      	AND  R30,R0
000225 f011      	BREQ _0xA2
                 ; 0000 001C                 {
                 ; 0000 001D                     p=1;
000226 e0e1      	LDI  R30,LOW(1)
000227 2e5e      	MOV  R5,R30
                 ; 0000 001E                 }
                 ; 0000 001F             if (light > 55)
                 _0xA2:
000228 940e 0290 	CALL SUBOPT_0x3
00022a 97d8      	SBIW R26,56
00022b f010      	BRLO _0xA3
                 ; 0000 0020                 {
                 ; 0000 0021                     p1=1;
00022c e0e1      	LDI  R30,LOW(1)
00022d 2e4e      	MOV  R4,R30
                 ; 0000 0022                 }
                 ; 0000 0023            if( DHT_GetTemHumi(&dht_nhiet_do,&dht_do_am))
                 _0xA3:
00022e e7ea      	LDI  R30,LOW(_dht_nhiet_do)
00022f e0f2      	LDI  R31,HIGH(_dht_nhiet_do)
000230 93fa      	ST   -Y,R31
000231 93ea      	ST   -Y,R30
000232 e7ab      	LDI  R26,LOW(_dht_do_am)
000233 e0b2      	LDI  R27,HIGH(_dht_do_am)
000234 df53      	RCALL _DHT_GetTemHumi
000235 30e0      	CPI  R30,0
000236 f039      	BREQ _0xA4
                 ; 0000 0024            temp = (unsigned int)dht_nhiet_do;
000237 91e0 027a 	LDS  R30,_dht_nhiet_do
000239 e0f0      	LDI  R31,0
00023a 93e0 0264 	STS  _temp,R30
00023c 93f0 0265 	STS  _temp+1,R31
                 ; 0000 0025            if (temp >=33)
                 _0xA4:
00023e 91a0 0264 	LDS  R26,_temp
000240 91b0 0265 	LDS  R27,_temp+1
000242 9791      	SBIW R26,33
000243 f010      	BRLO _0xA5
                 ; 0000 0026                 {
                 ; 0000 0027                     relay=1;
000244 e0e1      	LDI  R30,LOW(1)
000245 2e7e      	MOV  R7,R30
                 ; 0000 0028                 }
                 ; 0000 0029            if (soil >=90)
                 _0xA5:
000246 91a0 0262 	LDS  R26,_soil
000248 91b0 0263 	LDS  R27,_soil+1
00024a 35aa      	CPI  R26,LOW(0x5A)
00024b e0e0      	LDI  R30,HIGH(0x5A)
00024c 07be      	CPC  R27,R30
00024d f030      	BRLO _0xA6
                 ; 0000 002A                 {
                 ; 0000 002B                     soil = 90;
00024e e5ea      	LDI  R30,LOW(90)
00024f e0f0      	LDI  R31,HIGH(90)
000250 93e0 0262 	STS  _soil,R30
000252 93f0 0263 	STS  _soil+1,R31
                 ; 0000 002C                 }
                 ; 0000 002D             station_send.temp = (unsigned int)dht_nhiet_do;
                 _0xA6:
000254 91e0 027a 	LDS  R30,_dht_nhiet_do
000256 e0f0      	LDI  R31,0
000257 93e0 0272 	STS  _station_send,R30
000259 93f0 0273 	STS  _station_send+1,R31
                 ; 0000 002E             station_send.humid = (unsigned int)dht_do_am;
00025b 91e0 027b 	LDS  R30,_dht_do_am
00025d e0f0      	LDI  R31,0
                +
00025e 93e0 0274+STS _station_send + ( 2 ) , R30
000260 93f0 0275+STS _station_send + ( 2 ) + 1 , R31
                 	__PUTW1MN _station_send,2
                 ; 0000 002F             station_send.light = light;
000262 91e0 0260 	LDS  R30,_light
000264 91f0 0261 	LDS  R31,_light+1
                +
000266 93e0 0276+STS _station_send + ( 4 ) , R30
000268 93f0 0277+STS _station_send + ( 4 ) + 1 , R31
                 	__PUTW1MN _station_send,4
                 ; 0000 0030             station_send.soil =  90-soil;
00026a 91a0 0262 	LDS  R26,_soil
00026c 91b0 0263 	LDS  R27,_soil+1
00026e e5ea      	LDI  R30,LOW(90)
00026f e0f0      	LDI  R31,HIGH(90)
000270 1bea      	SUB  R30,R26
000271 0bfb      	SBC  R31,R27
                +
000272 93e0 0278+STS _station_send + ( 6 ) , R30
000274 93f0 0279+STS _station_send + ( 6 ) + 1 , R31
                 	__PUTW1MN _station_send,6
                 ; 0000 0031             TX_Send();
000276 deed      	RCALL _TX_Send
                 ; 0000 0032             delay_ms(200);
000277 eca8      	LDI  R26,LOW(200)
000278 e0b0      	LDI  R27,0
000279 940e 0295 	CALL _delay_ms
                 ; 0000 0033       }
00027b cf79      	RJMP _0x9E
                 ; 0000 0034 
                 ; 0000 0035 }
                 _0xA7:
00027c cfff      	RJMP _0xA7
                 ; .FEND
                 ;
                 	#ifndef __SLEEP_DEFINED__
                 	#endif
                 
                 	.CSEG
                 
                 	.CSEG
                 
                 	.CSEG
                 
                 	.CSEG
                 
                 	.CSEG
                 
                 	.DSEG
                 
                 	.CSEG
                 
                 	.DSEG
                 _light:
000260           	.BYTE 0x2
                 _soil:
000262           	.BYTE 0x2
                 _temp:
000264           	.BYTE 0x2
                 _Address1:
000266           	.BYTE 0x1
                 _Address2:
000267           	.BYTE 0x1
                 _Address3:
000268           	.BYTE 0x1
                 _Address4:
000269           	.BYTE 0x1
                 _station_receive:
00026a           	.BYTE 0x8
                 _station_send:
000272           	.BYTE 0x8
                 _dht_nhiet_do:
00027a           	.BYTE 0x1
                 _dht_do_am:
00027b           	.BYTE 0x1
                 __seed_G104:
00027c           	.BYTE 0x4
                 
                 	.CSEG
                 ;OPTIMIZER ADDED SUBROUTINE, CALLED 2 TIMES, CODE SIZE REDUCTION:2 WORDS
                 SUBOPT_0x0:
00027d 81a8      	LD   R26,Y
00027e 940e 00d6 	CALL _SPI_Write
000280 9aae      	SBI  0x15,6
                +
000281 e18b     +LDI R24 , LOW ( 27 )
                +__DELAY_USB_LOOP :
000282 958a     +DEC R24
000283 f7f1     +BRNE __DELAY_USB_LOOP
                 	__DELAY_USB 27
000284 9508      	RET
                 
                 ;OPTIMIZER ADDED SUBROUTINE, CALLED 3 TIMES, CODE SIZE REDUCTION:3 WORDS
                 SUBOPT_0x1:
000285 9aae      	SBI  0x15,6
                +
000286 e18b     +LDI R24 , LOW ( 27 )
                +__DELAY_USB_LOOP :
000287 958a     +DEC R24
000288 f7f1     +BRNE __DELAY_USB_LOOP
                 	__DELAY_USB 27
000289 98ae      	CBI  0x15,6
00028a 9508      	RET
                 
                 ;OPTIMIZER ADDED SUBROUTINE, CALLED 3 TIMES, CODE SIZE REDUCTION:3 WORDS
                 SUBOPT_0x2:
00028b e0e7      	LDI  R30,LOW(7)
00028c 93ea      	ST   -Y,R30
00028d e7ae      	LDI  R26,LOW(126)
00028e 940c 00fb 	JMP  _RF_Write
                 
                 ;OPTIMIZER ADDED SUBROUTINE, CALLED 4 TIMES, CODE SIZE REDUCTION:3 WORDS
                 SUBOPT_0x3:
000290 91a0 0260 	LDS  R26,_light
000292 91b0 0261 	LDS  R27,_light+1
000294 9508      	RET
                 
                 
                 	.CSEG
                 _delay_ms:
000295 9610      	adiw r26,0
000296 f039      	breq __delay_ms1
                 __delay_ms0:
                +
000297 ed80     +LDI R24 , LOW ( 0x7D0 )
000298 e097     +LDI R25 , HIGH ( 0x7D0 )
                +__DELAY_USW_LOOP :
000299 9701     +SBIW R24 , 1
00029a f7f1     +BRNE __DELAY_USW_LOOP
                 	__DELAY_USW 0x7D0
00029b 95a8      	wdr
00029c 9711      	sbiw r26,1
00029d f7c9      	brne __delay_ms0
                 __delay_ms1:
00029e 9508      	ret
                 
                 	.equ __w1_port=0x15
                 	.equ __w1_bit=0x05
                 
                 __LSLB12:
00029f 23ee      	TST  R30
0002a0 2e0e      	MOV  R0,R30
0002a1 2fea      	MOV  R30,R26
0002a2 f019      	BREQ __LSLB12R
                 __LSLB12L:
0002a3 0fee      	LSL  R30
0002a4 940a      	DEC  R0
0002a5 f7e9      	BRNE __LSLB12L
                 __LSLB12R:
0002a6 9508      	RET
                 
                 __LEW12U:
0002a7 17ea      	CP   R30,R26
0002a8 07fb      	CPC  R31,R27
0002a9 e0e1      	LDI  R30,1
0002aa f408      	BRSH __LEW12UT
0002ab 27ee      	CLR  R30
                 __LEW12UT:
0002ac 9508      	RET
                 
                 __GTW12U:
0002ad 17ea      	CP   R30,R26
0002ae 07fb      	CPC  R31,R27
0002af e0e1      	LDI  R30,1
0002b0 f008      	BRLO __GTW12UT
0002b1 27ee      	CLR  R30
                 __GTW12UT:
0002b2 9508      	RET
                 
                 __DIVW21U:
0002b3 2400      	CLR  R0
0002b4 2411      	CLR  R1
0002b5 e190      	LDI  R25,16
                 __DIVW21U1:
0002b6 0faa      	LSL  R26
0002b7 1fbb      	ROL  R27
0002b8 1c00      	ROL  R0
0002b9 1c11      	ROL  R1
0002ba 1a0e      	SUB  R0,R30
0002bb 0a1f      	SBC  R1,R31
0002bc f418      	BRCC __DIVW21U2
0002bd 0e0e      	ADD  R0,R30
0002be 1e1f      	ADC  R1,R31
0002bf c001      	RJMP __DIVW21U3
                 __DIVW21U2:
0002c0 60a1      	SBR  R26,1
                 __DIVW21U3:
0002c1 959a      	DEC  R25
0002c2 f799      	BRNE __DIVW21U1
0002c3 01fd      	MOVW R30,R26
0002c4 01d0      	MOVW R26,R0
0002c5 9508      	RET
                 
                 __SAVELOCR4:
0002c6 933a      	ST   -Y,R19
                 __SAVELOCR3:
0002c7 932a      	ST   -Y,R18
                 __SAVELOCR2:
0002c8 931a      	ST   -Y,R17
0002c9 930a      	ST   -Y,R16
0002ca 9508      	RET
                 
                 __LOADLOCR4:
0002cb 813b      	LDD  R19,Y+3
                 __LOADLOCR3:
0002cc 812a      	LDD  R18,Y+2
                 __LOADLOCR2:
0002cd 8119      	LDD  R17,Y+1
0002ce 8108      	LD   R16,Y
0002cf 9508      	RET
                 
                 ;END OF CODE MARKER
                 __END_OF_CODE:


RESOURCE USE INFORMATION
------------------------

Notice:
The register and instruction counts are symbol table hit counts,
and hence implicitly used resources are not counted, eg, the
'lpm' instruction without operands implicitly uses r0 and z,
none of which are counted.

x,y,z are separate entities in the symbol table and are
counted separately from r26..r31 here.

.dseg memory usage only counts static data declared with .byte

ATmega32A register use summary:
r0 :  13 r1 :   7 r2 :   0 r3 :   0 r4 :   3 r5 :   5 r6 :   4 r7 :   3 
r8 :   4 r9 :   2 r10:   4 r11:   2 r12:   4 r13:   2 r14:   0 r15:   0 
r16:   6 r17:  11 r18:   2 r19:   4 r20:   0 r21:   0 r22:   4 r23:   0 
r24:  35 r25:   9 r26:  82 r27:  20 r28:   6 r29:   1 r30: 193 r31:  41 
x  :   6 y  :  67 z  :   8 
Registers used: 28 out of 35 (80.0%)

ATmega32A instruction use summary:
.lds  :   0 .lds.l:   0 .sts  :   0 .sts.l:   0 adc   :   2 add   :   5 
adiw  :   8 and   :   1 andi  :   1 asr   :   0 bclr  :   0 bld   :   0 
brbc  :   0 brbs  :   0 brcc  :   1 brcs  :   0 break :   0 breq  :   6 
brge  :   0 brhc  :   0 brhs  :   0 brid  :   0 brie  :   0 brlo  :   5 
brlt  :   0 brmi  :   0 brne  :  27 brpl  :   0 brsh  :   4 brtc  :   0 
brts  :   0 brvc  :   0 brvs  :   0 bset  :   0 bst   :   0 call  :  23 
cbi   :  17 cbr   :   0 clc   :   0 clh   :   0 cli   :   1 cln   :   0 
clr   :  16 cls   :   0 clt   :   0 clv   :   0 clz   :   0 com   :   0 
cp    :   9 cpc   :   7 cpi   :   6 cpse  :   0 dec   :  12 des   :   0 
eor   :   0 fmul  :   0 fmuls :   0 fmulsu:   0 icall :   0 ijmp  :   0 
in    :   3 inc   :   0 jmp   :  23 ld    :  11 ldd   :  21 ldi   : 133 
lds   :  17 lpm   :   7 lsl   :   3 lsr   :   0 mov   :  15 movw  :  16 
mul   :   0 muls  :   0 mulsu :   0 neg   :   0 nop   :   0 or    :   2 
ori   :   2 out   :  23 pop   :   0 push  :   0 rcall :  35 ret   :  17 
reti  :   1 rjmp  :  24 rol   :   3 ror   :   0 sbc   :   2 sbci  :   0 
sbi   :  17 sbic  :   4 sbis  :   5 sbiw  :  12 sbr   :   1 sbrc  :   0 
sbrs  :   0 sec   :   0 seh   :   0 sei   :   2 sen   :   0 ser   :   0 
ses   :   0 set   :   0 sev   :   0 sez   :   0 sleep :   0 spm   :   0 
st    :  36 std   :   6 sts   :  18 sub   :   3 subi  :   3 swap  :   0 
tst   :   1 wdr   :   1 
Instructions used: 50 out of 116 (43.1%)

ATmega32A memory use summary [bytes]:
Segment   Begin    End      Code   Data   Used    Size   Use%
---------------------------------------------------------------
[.cseg] 0x000000 0x0005a0   1398     42   1440   32768   4.4%
[.dseg] 0x000060 0x000280      0     32     32    2048   1.6%
[.eseg] 0x000000 0x000000      0      0      0    1024   0.0%

Assembly complete, 0 errors, 13 warnings
